
kernel:     file format elf64-x86-64

Disassembly of section .text:

ffffffff802000f0 <printSectHrds>:
ffffffff802000f0:	48 83 ec 38          	sub    $0x38,%rsp
ffffffff802000f4:	0f b7 c2             	movzwl %dx,%eax
ffffffff802000f7:	48 c1 e0 06          	shl    $0x6,%rax
ffffffff802000fb:	48 03 7e 28          	add    0x28(%rsi),%rdi
ffffffff802000ff:	48 8d 44 07 40       	lea    0x40(%rdi,%rax,1),%rax
ffffffff80200104:	4c 8b 48 10          	mov    0x10(%rax),%r9
ffffffff80200108:	4c 8b 40 08          	mov    0x8(%rax),%r8
ffffffff8020010c:	8b 48 04             	mov    0x4(%rax),%ecx
ffffffff8020010f:	0f b7 f2             	movzwl %dx,%esi
ffffffff80200112:	48 8b 50 38          	mov    0x38(%rax),%rdx
ffffffff80200116:	48 89 54 24 28       	mov    %rdx,0x28(%rsp)
ffffffff8020011b:	48 8b 50 30          	mov    0x30(%rax),%rdx
ffffffff8020011f:	48 89 54 24 20       	mov    %rdx,0x20(%rsp)
ffffffff80200124:	8b 50 2c             	mov    0x2c(%rax),%edx
ffffffff80200127:	89 54 24 18          	mov    %edx,0x18(%rsp)
ffffffff8020012b:	8b 50 28             	mov    0x28(%rax),%edx
ffffffff8020012e:	89 54 24 10          	mov    %edx,0x10(%rsp)
ffffffff80200132:	48 8b 50 20          	mov    0x20(%rax),%rdx
ffffffff80200136:	48 89 54 24 08       	mov    %rdx,0x8(%rsp)
ffffffff8020013b:	48 8b 50 18          	mov    0x18(%rax),%rdx
ffffffff8020013f:	48 89 14 24          	mov    %rdx,(%rsp)
ffffffff80200143:	8b 10                	mov    (%rax),%edx
ffffffff80200145:	48 8d 3d 34 55 00 00 	lea    21812(%rip),%rdi        # ffffffff80205680 <__FUNCTION__.1376+0x20>
ffffffff8020014c:	b8 00 00 00 00       	mov    $0x0,%eax
ffffffff80200151:	e8 85 29 00 00       	callq  ffffffff80202adb <printf>
ffffffff80200156:	48 83 c4 38          	add    $0x38,%rsp
ffffffff8020015a:	c3                   	retq   

ffffffff8020015b <printElfHdr>:
ffffffff8020015b:	48 83 ec 58          	sub    $0x58,%rsp
ffffffff8020015f:	0f b7 4e 12          	movzwl 0x12(%rsi),%ecx
ffffffff80200163:	0f b7 56 10          	movzwl 0x10(%rsi),%edx
ffffffff80200167:	0f b7 46 3e          	movzwl 0x3e(%rsi),%eax
ffffffff8020016b:	89 44 24 40          	mov    %eax,0x40(%rsp)
ffffffff8020016f:	0f b7 46 3c          	movzwl 0x3c(%rsi),%eax
ffffffff80200173:	89 44 24 38          	mov    %eax,0x38(%rsp)
ffffffff80200177:	0f b7 46 3a          	movzwl 0x3a(%rsi),%eax
ffffffff8020017b:	89 44 24 30          	mov    %eax,0x30(%rsp)
ffffffff8020017f:	0f b7 46 38          	movzwl 0x38(%rsi),%eax
ffffffff80200183:	89 44 24 28          	mov    %eax,0x28(%rsp)
ffffffff80200187:	0f b7 46 36          	movzwl 0x36(%rsi),%eax
ffffffff8020018b:	89 44 24 20          	mov    %eax,0x20(%rsp)
ffffffff8020018f:	0f b7 46 34          	movzwl 0x34(%rsi),%eax
ffffffff80200193:	89 44 24 18          	mov    %eax,0x18(%rsp)
ffffffff80200197:	8b 46 30             	mov    0x30(%rsi),%eax
ffffffff8020019a:	89 44 24 10          	mov    %eax,0x10(%rsp)
ffffffff8020019e:	48 8b 46 28          	mov    0x28(%rsi),%rax
ffffffff802001a2:	48 89 44 24 08       	mov    %rax,0x8(%rsp)
ffffffff802001a7:	48 8b 46 20          	mov    0x20(%rsi),%rax
ffffffff802001ab:	48 89 04 24          	mov    %rax,(%rsp)
ffffffff802001af:	4c 8b 4e 18          	mov    0x18(%rsi),%r9
ffffffff802001b3:	44 8b 46 14          	mov    0x14(%rsi),%r8d
ffffffff802001b7:	48 8d 3d 72 55 00 00 	lea    21874(%rip),%rdi        # ffffffff80205730 <__FUNCTION__.1376+0xd0>
ffffffff802001be:	b8 00 00 00 00       	mov    $0x0,%eax
ffffffff802001c3:	e8 13 29 00 00       	callq  ffffffff80202adb <printf>
ffffffff802001c8:	48 83 c4 58          	add    $0x58,%rsp
ffffffff802001cc:	c3                   	retq   

ffffffff802001cd <printPgmHdr>:
ffffffff802001cd:	48 83 ec 08          	sub    $0x8,%rsp
ffffffff802001d1:	0f b7 d2             	movzwl %dx,%edx
ffffffff802001d4:	48 8d 04 d5 00 00 00 	lea    0x0(,%rdx,8),%rax
ffffffff802001db:	00 
ffffffff802001dc:	48 c1 e2 06          	shl    $0x6,%rdx
ffffffff802001e0:	48 29 c2             	sub    %rax,%rdx
ffffffff802001e3:	48 8d 44 17 40       	lea    0x40(%rdi,%rdx,1),%rax
ffffffff802001e8:	48 8b 48 20          	mov    0x20(%rax),%rcx
ffffffff802001ec:	48 8b 50 08          	mov    0x8(%rax),%rdx
ffffffff802001f0:	48 8b 70 10          	mov    0x10(%rax),%rsi
ffffffff802001f4:	48 8d 3d 25 56 00 00 	lea    22053(%rip),%rdi        # ffffffff80205820 <__FUNCTION__.1376+0x1c0>
ffffffff802001fb:	b8 00 00 00 00       	mov    $0x0,%eax
ffffffff80200200:	e8 d6 28 00 00       	callq  ffffffff80202adb <printf>
ffffffff80200205:	48 83 c4 08          	add    $0x8,%rsp
ffffffff80200209:	c3                   	retq   

ffffffff8020020a <round>:
ffffffff8020020a:	8d 87 ff 01 00 00    	lea    0x1ff(%rdi),%eax
ffffffff80200210:	85 ff                	test   %edi,%edi
ffffffff80200212:	0f 48 f8             	cmovs  %eax,%edi
ffffffff80200215:	81 e7 00 fe ff ff    	and    $0xfffffe00,%edi
ffffffff8020021b:	8d 87 00 02 00 00    	lea    0x200(%rdi),%eax
ffffffff80200221:	c3                   	retq   

ffffffff80200222 <tarfs_read>:
ffffffff80200222:	41 55                	push   %r13
ffffffff80200224:	41 54                	push   %r12
ffffffff80200226:	55                   	push   %rbp
ffffffff80200227:	53                   	push   %rbx
ffffffff80200228:	48 83 ec 08          	sub    $0x8,%rsp
ffffffff8020022c:	49 89 fd             	mov    %rdi,%r13
ffffffff8020022f:	4c 8b 25 02 8e 00 00 	mov    36354(%rip),%r12        # ffffffff80209038 <__FUNCTION__.1376+0x39d8>
ffffffff80200236:	48 8b 1d ab 8e 00 00 	mov    36523(%rip),%rbx        # ffffffff802090e8 <__FUNCTION__.1376+0x3a88>
ffffffff8020023d:	eb 57                	jmp    ffffffff80200296 <tarfs_read+0x74>
ffffffff8020023f:	4c 89 ee             	mov    %r13,%rsi
ffffffff80200242:	48 89 df             	mov    %rbx,%rdi
ffffffff80200245:	e8 bc 2b 00 00       	callq  ffffffff80202e06 <strcmp>
ffffffff8020024a:	85 c0                	test   %eax,%eax
ffffffff8020024c:	75 09                	jne    ffffffff80200257 <tarfs_read+0x35>
ffffffff8020024e:	48 8d 83 00 02 00 00 	lea    0x200(%rbx),%rax
ffffffff80200255:	eb 49                	jmp    ffffffff802002a0 <tarfs_read+0x7e>
ffffffff80200257:	48 8d 6b 7c          	lea    0x7c(%rbx),%rbp
ffffffff8020025b:	48 89 ef             	mov    %rbp,%rdi
ffffffff8020025e:	e8 76 2b 00 00       	callq  ffffffff80202dd9 <my_atool>
ffffffff80200263:	85 c0                	test   %eax,%eax
ffffffff80200265:	75 16                	jne    ffffffff8020027d <tarfs_read+0x5b>
ffffffff80200267:	48 89 ef             	mov    %rbp,%rdi
ffffffff8020026a:	e8 6a 2b 00 00       	callq  ffffffff80202dd9 <my_atool>
ffffffff8020026f:	89 c0                	mov    %eax,%eax
ffffffff80200271:	48 ff c0             	inc    %rax
ffffffff80200274:	48 c1 e0 09          	shl    $0x9,%rax
ffffffff80200278:	48 01 c3             	add    %rax,%rbx
ffffffff8020027b:	eb 19                	jmp    ffffffff80200296 <tarfs_read+0x74>
ffffffff8020027d:	48 89 ef             	mov    %rbp,%rdi
ffffffff80200280:	e8 54 2b 00 00       	callq  ffffffff80202dd9 <my_atool>
ffffffff80200285:	89 c7                	mov    %eax,%edi
ffffffff80200287:	e8 7e ff ff ff       	callq  ffffffff8020020a <round>
ffffffff8020028c:	48 98                	cltq   
ffffffff8020028e:	48 8d 9c 03 00 02 00 	lea    0x200(%rbx,%rax,1),%rbx
ffffffff80200295:	00 
ffffffff80200296:	4c 39 e3             	cmp    %r12,%rbx
ffffffff80200299:	76 a4                	jbe    ffffffff8020023f <tarfs_read+0x1d>
ffffffff8020029b:	b8 00 00 00 00       	mov    $0x0,%eax
ffffffff802002a0:	48 83 c4 08          	add    $0x8,%rsp
ffffffff802002a4:	5b                   	pop    %rbx
ffffffff802002a5:	5d                   	pop    %rbp
ffffffff802002a6:	41 5c                	pop    %r12
ffffffff802002a8:	41 5d                	pop    %r13
ffffffff802002aa:	c3                   	retq   

ffffffff802002ab <readelf>:
ffffffff802002ab:	41 55                	push   %r13
ffffffff802002ad:	41 54                	push   %r12
ffffffff802002af:	55                   	push   %rbp
ffffffff802002b0:	53                   	push   %rbx
ffffffff802002b1:	48 83 ec 08          	sub    $0x8,%rsp
ffffffff802002b5:	48 89 f5             	mov    %rsi,%rbp
ffffffff802002b8:	48 89 d3             	mov    %rdx,%rbx
ffffffff802002bb:	49 89 cc             	mov    %rcx,%r12
ffffffff802002be:	e8 5f ff ff ff       	callq  ffffffff80200222 <tarfs_read>
ffffffff802002c3:	49 89 c2             	mov    %rax,%r10
ffffffff802002c6:	b8 00 00 00 00       	mov    $0x0,%eax
ffffffff802002cb:	4d 85 d2             	test   %r10,%r10
ffffffff802002ce:	0f 84 bd 00 00 00    	je     ffffffff80200391 <readelf+0xe6>
ffffffff802002d4:	49 8b 42 18          	mov    0x18(%r10),%rax
ffffffff802002d8:	49 89 04 24          	mov    %rax,(%r12)
ffffffff802002dc:	41 0f b7 42 38       	movzwl 0x38(%r10),%eax
ffffffff802002e1:	8d 50 ff             	lea    0xffffffffffffffff(%rax),%edx
ffffffff802002e4:	66 89 13             	mov    %dx,(%rbx)
ffffffff802002e7:	49 8b 42 28          	mov    0x28(%r10),%rax
ffffffff802002eb:	49 8b 44 02 50       	mov    0x50(%r10,%rax,1),%rax
ffffffff802002f0:	0f b7 ca             	movzwl %dx,%ecx
ffffffff802002f3:	48 8d 34 cd 00 00 00 	lea    0x0(,%rcx,8),%rsi
ffffffff802002fa:	00 
ffffffff802002fb:	48 c1 e1 06          	shl    $0x6,%rcx
ffffffff802002ff:	48 29 f1             	sub    %rsi,%rcx
ffffffff80200302:	4c 89 d6             	mov    %r10,%rsi
ffffffff80200305:	49 03 72 20          	add    0x20(%r10),%rsi
ffffffff80200309:	4c 8d 64 0e 40       	lea    0x40(%rsi,%rcx,1),%r12
ffffffff8020030e:	66 85 d2             	test   %dx,%dx
ffffffff80200311:	74 62                	je     ffffffff80200375 <readelf+0xca>
ffffffff80200313:	4d 89 d3             	mov    %r10,%r11
ffffffff80200316:	41 b9 00 00 00 00    	mov    $0x0,%r9d
ffffffff8020031c:	b9 00 00 00 00       	mov    $0x0,%ecx
ffffffff80200321:	0f b7 f9             	movzwl %cx,%edi
ffffffff80200324:	48 8d 34 fd 00 00 00 	lea    0x0(,%rdi,8),%rsi
ffffffff8020032b:	00 
ffffffff8020032c:	48 89 fa             	mov    %rdi,%rdx
ffffffff8020032f:	48 c1 e2 06          	shl    $0x6,%rdx
ffffffff80200333:	48 29 f2             	sub    %rsi,%rdx
ffffffff80200336:	4d 8d 44 12 40       	lea    0x40(%r10,%rdx,1),%r8
ffffffff8020033b:	49 8b 70 28          	mov    0x28(%r8),%rsi
ffffffff8020033f:	49 8b 50 10          	mov    0x10(%r8),%rdx
ffffffff80200343:	4d 8b 40 08          	mov    0x8(%r8),%r8
ffffffff80200347:	49 89 d5             	mov    %rdx,%r13
ffffffff8020034a:	4d 29 c5             	sub    %r8,%r13
ffffffff8020034d:	66 85 c9             	test   %cx,%cx
ffffffff80200350:	74 31                	je     ffffffff80200383 <readelf+0xd8>
ffffffff80200352:	eb 38                	jmp    ffffffff8020038c <readelf+0xe1>
ffffffff80200354:	49 01 f1             	add    %rsi,%r9
ffffffff80200357:	48 c1 e7 05          	shl    $0x5,%rdi
ffffffff8020035b:	48 01 ef             	add    %rbp,%rdi
ffffffff8020035e:	89 37                	mov    %esi,(%rdi)
ffffffff80200360:	4c 89 6f 08          	mov    %r13,0x8(%rdi)
ffffffff80200364:	48 89 57 10          	mov    %rdx,0x10(%rdi)
ffffffff80200368:	4c 89 47 18          	mov    %r8,0x18(%rdi)
ffffffff8020036c:	ff c1                	inc    %ecx
ffffffff8020036e:	66 39 0b             	cmp    %cx,(%rbx)
ffffffff80200371:	77 ae                	ja     ffffffff80200321 <readelf+0x76>
ffffffff80200373:	eb 07                	jmp    ffffffff8020037c <readelf+0xd1>
ffffffff80200375:	b8 01 00 00 00       	mov    $0x1,%eax
ffffffff8020037a:	eb 15                	jmp    ffffffff80200391 <readelf+0xe6>
ffffffff8020037c:	b8 01 00 00 00       	mov    $0x1,%eax
ffffffff80200381:	eb 0e                	jmp    ffffffff80200391 <readelf+0xe6>
ffffffff80200383:	4f 8d 04 21          	lea    (%r9,%r12,1),%r8
ffffffff80200387:	48 89 c2             	mov    %rax,%rdx
ffffffff8020038a:	eb c8                	jmp    ffffffff80200354 <readelf+0xa9>
ffffffff8020038c:	4d 01 d8             	add    %r11,%r8
ffffffff8020038f:	eb c3                	jmp    ffffffff80200354 <readelf+0xa9>
ffffffff80200391:	48 83 c4 08          	add    $0x8,%rsp
ffffffff80200395:	5b                   	pop    %rbx
ffffffff80200396:	5d                   	pop    %rbp
ffffffff80200397:	41 5c                	pop    %r12
ffffffff80200399:	41 5d                	pop    %r13
ffffffff8020039b:	c3                   	retq   

ffffffff8020039c <PushU_General_Registers>:
ffffffff8020039c:	53                   	push   %rbx
ffffffff8020039d:	48 89 fb             	mov    %rdi,%rbx
ffffffff802003a0:	be 00 00 00 00       	mov    $0x0,%esi
ffffffff802003a5:	e8 c4 0f 00 00       	callq  ffffffff8020136e <PushU>
ffffffff802003aa:	be 00 00 00 00       	mov    $0x0,%esi
ffffffff802003af:	48 89 df             	mov    %rbx,%rdi
ffffffff802003b2:	e8 b7 0f 00 00       	callq  ffffffff8020136e <PushU>
ffffffff802003b7:	be 00 00 00 00       	mov    $0x0,%esi
ffffffff802003bc:	48 89 df             	mov    %rbx,%rdi
ffffffff802003bf:	e8 aa 0f 00 00       	callq  ffffffff8020136e <PushU>
ffffffff802003c4:	be 00 00 00 00       	mov    $0x0,%esi
ffffffff802003c9:	48 89 df             	mov    %rbx,%rdi
ffffffff802003cc:	e8 9d 0f 00 00       	callq  ffffffff8020136e <PushU>
ffffffff802003d1:	be 00 00 00 00       	mov    $0x0,%esi
ffffffff802003d6:	48 89 df             	mov    %rbx,%rdi
ffffffff802003d9:	e8 90 0f 00 00       	callq  ffffffff8020136e <PushU>
ffffffff802003de:	be 00 00 00 00       	mov    $0x0,%esi
ffffffff802003e3:	48 89 df             	mov    %rbx,%rdi
ffffffff802003e6:	e8 83 0f 00 00       	callq  ffffffff8020136e <PushU>
ffffffff802003eb:	be 00 00 00 00       	mov    $0x0,%esi
ffffffff802003f0:	48 89 df             	mov    %rbx,%rdi
ffffffff802003f3:	e8 76 0f 00 00       	callq  ffffffff8020136e <PushU>
ffffffff802003f8:	be 00 00 00 00       	mov    $0x0,%esi
ffffffff802003fd:	48 89 df             	mov    %rbx,%rdi
ffffffff80200400:	e8 69 0f 00 00       	callq  ffffffff8020136e <PushU>
ffffffff80200405:	be 00 00 00 00       	mov    $0x0,%esi
ffffffff8020040a:	48 89 df             	mov    %rbx,%rdi
ffffffff8020040d:	e8 5c 0f 00 00       	callq  ffffffff8020136e <PushU>
ffffffff80200412:	be 00 00 00 00       	mov    $0x0,%esi
ffffffff80200417:	48 89 df             	mov    %rbx,%rdi
ffffffff8020041a:	e8 4f 0f 00 00       	callq  ffffffff8020136e <PushU>
ffffffff8020041f:	be 00 00 00 00       	mov    $0x0,%esi
ffffffff80200424:	48 89 df             	mov    %rbx,%rdi
ffffffff80200427:	e8 42 0f 00 00       	callq  ffffffff8020136e <PushU>
ffffffff8020042c:	be 00 00 00 00       	mov    $0x0,%esi
ffffffff80200431:	48 89 df             	mov    %rbx,%rdi
ffffffff80200434:	e8 35 0f 00 00       	callq  ffffffff8020136e <PushU>
ffffffff80200439:	be 00 00 00 00       	mov    $0x0,%esi
ffffffff8020043e:	48 89 df             	mov    %rbx,%rdi
ffffffff80200441:	e8 28 0f 00 00       	callq  ffffffff8020136e <PushU>
ffffffff80200446:	be 00 00 00 00       	mov    $0x0,%esi
ffffffff8020044b:	48 89 df             	mov    %rbx,%rdi
ffffffff8020044e:	e8 1b 0f 00 00       	callq  ffffffff8020136e <PushU>
ffffffff80200453:	be 00 00 00 00       	mov    $0x0,%esi
ffffffff80200458:	48 89 df             	mov    %rbx,%rdi
ffffffff8020045b:	e8 0e 0f 00 00       	callq  ffffffff8020136e <PushU>
ffffffff80200460:	5b                   	pop    %rbx
ffffffff80200461:	c3                   	retq   

ffffffff80200462 <setup_kthread_user>:
ffffffff80200462:	55                   	push   %rbp
ffffffff80200463:	53                   	push   %rbx
ffffffff80200464:	48 83 ec 08          	sub    $0x8,%rsp
ffffffff80200468:	48 89 fb             	mov    %rdi,%rbx
ffffffff8020046b:	48 89 f5             	mov    %rsi,%rbp
ffffffff8020046e:	48 8b 05 ab 8b 00 00 	mov    35755(%rip),%rax        # ffffffff80209020 <__FUNCTION__.1376+0x39c0>
ffffffff80200475:	48 8b 30             	mov    (%rax),%rsi
ffffffff80200478:	e8 f1 0e 00 00       	callq  ffffffff8020136e <PushU>
ffffffff8020047d:	48 8b 33             	mov    (%rbx),%rsi
ffffffff80200480:	48 89 df             	mov    %rbx,%rdi
ffffffff80200483:	e8 e6 0e 00 00       	callq  ffffffff8020136e <PushU>
ffffffff80200488:	be 00 02 00 00       	mov    $0x200,%esi
ffffffff8020048d:	48 89 df             	mov    %rbx,%rdi
ffffffff80200490:	e8 d9 0e 00 00       	callq  ffffffff8020136e <PushU>
ffffffff80200495:	48 8b 05 c4 8d 00 00 	mov    36292(%rip),%rax        # ffffffff80209260 <__FUNCTION__.1376+0x3c00>
ffffffff8020049c:	48 8b 30             	mov    (%rax),%rsi
ffffffff8020049f:	48 89 df             	mov    %rbx,%rdi
ffffffff802004a2:	e8 c7 0e 00 00       	callq  ffffffff8020136e <PushU>
ffffffff802004a7:	48 89 ee             	mov    %rbp,%rsi
ffffffff802004aa:	48 89 df             	mov    %rbx,%rdi
ffffffff802004ad:	e8 bc 0e 00 00       	callq  ffffffff8020136e <PushU>
ffffffff802004b2:	be 00 00 00 00       	mov    $0x0,%esi
ffffffff802004b7:	48 89 df             	mov    %rbx,%rdi
ffffffff802004ba:	e8 af 0e 00 00       	callq  ffffffff8020136e <PushU>
ffffffff802004bf:	be 00 00 00 00       	mov    $0x0,%esi
ffffffff802004c4:	48 89 df             	mov    %rbx,%rdi
ffffffff802004c7:	e8 a2 0e 00 00       	callq  ffffffff8020136e <PushU>
ffffffff802004cc:	48 89 df             	mov    %rbx,%rdi
ffffffff802004cf:	e8 c8 fe ff ff       	callq  ffffffff8020039c <PushU_General_Registers>
ffffffff802004d4:	48 83 c4 08          	add    $0x8,%rsp
ffffffff802004d8:	5b                   	pop    %rbx
ffffffff802004d9:	5d                   	pop    %rbp
ffffffff802004da:	c3                   	retq   

ffffffff802004db <create_kthread_user>:
ffffffff802004db:	41 55                	push   %r13
ffffffff802004dd:	41 54                	push   %r12
ffffffff802004df:	55                   	push   %rbp
ffffffff802004e0:	53                   	push   %rbx
ffffffff802004e1:	48 83 ec 08          	sub    $0x8,%rsp
ffffffff802004e5:	48 89 fd             	mov    %rdi,%rbp
ffffffff802004e8:	41 89 f5             	mov    %esi,%r13d
ffffffff802004eb:	41 89 d4             	mov    %edx,%r12d
ffffffff802004ee:	be 00 00 00 00       	mov    $0x0,%esi
ffffffff802004f3:	bf c8 04 00 00       	mov    $0x4c8,%edi
ffffffff802004f8:	e8 02 3a 00 00       	callq  ffffffff80203eff <sub_malloc>
ffffffff802004fd:	48 89 c3             	mov    %rax,%rbx
ffffffff80200500:	48 85 c0             	test   %rax,%rax
ffffffff80200503:	0f 84 fe 00 00 00    	je     ffffffff80200607 <create_kthread_user+0x12c>
ffffffff80200509:	be 01 00 00 00       	mov    $0x1,%esi
ffffffff8020050e:	bf 01 00 00 00       	mov    $0x1,%edi
ffffffff80200513:	e8 e7 39 00 00       	callq  ffffffff80203eff <sub_malloc>
ffffffff80200518:	48 89 43 28          	mov    %rax,0x28(%rbx)
ffffffff8020051c:	48 85 c0             	test   %rax,%rax
ffffffff8020051f:	75 14                	jne    ffffffff80200535 <create_kthread_user+0x5a>
ffffffff80200521:	bf 00 00 00 00       	mov    $0x0,%edi
ffffffff80200526:	e8 99 39 00 00       	callq  ffffffff80203ec4 <sub_free>
ffffffff8020052b:	b8 00 00 00 00       	mov    $0x0,%eax
ffffffff80200530:	e9 0c 01 00 00       	jmpq   ffffffff80200641 <create_kthread_user+0x166>
ffffffff80200535:	48 8b 15 9c 8b 00 00 	mov    35740(%rip),%rdx        # ffffffff802090d8 <__FUNCTION__.1376+0x3a78>
ffffffff8020053c:	c7 02 01 00 00 00    	movl   $0x1,(%rdx)
ffffffff80200542:	45 0f b7 ed          	movzwl %r13w,%r13d
ffffffff80200546:	45 85 e4             	test   %r12d,%r12d
ffffffff80200549:	0f 85 bf 00 00 00    	jne    ffffffff8020060e <create_kthread_user+0x133>
ffffffff8020054f:	48 8b 15 4a 8c 00 00 	mov    35914(%rip),%rdx        # ffffffff802091a0 <__FUNCTION__.1376+0x3b40>
ffffffff80200556:	48 8b 12             	mov    (%rdx),%rdx
ffffffff80200559:	48 c7 43 48 00 f0 bf 	movq   $0xbff000,0x48(%rbx)
ffffffff80200560:	00 
ffffffff80200561:	48 c7 03 f8 ff bf 00 	movq   $0xbffff8,(%rbx)
ffffffff80200568:	48 05 f8 1f 00 00    	add    $0x1ff8,%rax
ffffffff8020056e:	48 89 43 10          	mov    %rax,0x10(%rbx)
ffffffff80200572:	48 89 43 28          	mov    %rax,0x28(%rbx)
ffffffff80200576:	44 89 6b 34          	mov    %r13d,0x34(%rbx)
ffffffff8020057a:	48 89 53 58          	mov    %rdx,0x58(%rbx)
ffffffff8020057e:	b8 02 00 00 00       	mov    $0x2,%eax
ffffffff80200583:	89 43 78             	mov    %eax,0x78(%rbx)
ffffffff80200586:	48 c7 43 08 00 00 00 	movq   $0x0,0x8(%rbx)
ffffffff8020058d:	00 
ffffffff8020058e:	c7 43 50 01 00 00 00 	movl   $0x1,0x50(%rbx)
ffffffff80200595:	c7 83 90 00 00 00 01 	movl   $0x1,0x90(%rbx)
ffffffff8020059c:	00 00 00 
ffffffff8020059f:	c7 43 30 00 00 00 00 	movl   $0x0,0x30(%rbx)
ffffffff802005a6:	48 89 ab 98 00 00 00 	mov    %rbp,0x98(%rbx)
ffffffff802005ad:	b8 00 00 00 00       	mov    $0x0,%eax
ffffffff802005b2:	e8 40 3a 00 00       	callq  ffffffff80203ff7 <get_cr3_register>
ffffffff802005b7:	48 89 43 18          	mov    %rax,0x18(%rbx)
ffffffff802005bb:	48 8b 05 de 8b 00 00 	mov    35806(%rip),%rax        # ffffffff802091a0 <__FUNCTION__.1376+0x3b40>
ffffffff802005c2:	48 8b 00             	mov    (%rax),%rax
ffffffff802005c5:	48 8b 50 20          	mov    0x20(%rax),%rdx
ffffffff802005c9:	48 89 53 20          	mov    %rdx,0x20(%rbx)
ffffffff802005cd:	48 39 c3             	cmp    %rax,%rbx
ffffffff802005d0:	74 21                	je     ffffffff802005f3 <create_kthread_user+0x118>
ffffffff802005d2:	48 8d 3d 0f 79 00 00 	lea    30991(%rip),%rdi        # ffffffff80207ee8 <__FUNCTION__.1376+0x2888>
ffffffff802005d9:	b8 00 00 00 00       	mov    $0x0,%eax
ffffffff802005de:	e8 f8 24 00 00       	callq  ffffffff80202adb <printf>
ffffffff802005e3:	b8 00 00 00 00       	mov    $0x0,%eax
ffffffff802005e8:	e8 1e 14 00 00       	callq  ffffffff80201a0b <alloc_pid>
ffffffff802005ed:	89 83 a4 00 00 00    	mov    %eax,0xa4(%rbx)
ffffffff802005f3:	48 89 de             	mov    %rbx,%rsi
ffffffff802005f6:	48 8b 3d eb 8b 00 00 	mov    35819(%rip),%rdi        # ffffffff802091e8 <__FUNCTION__.1376+0x3b88>
ffffffff802005fd:	e8 82 14 00 00       	callq  ffffffff80201a84 <append_global_list_queue>
ffffffff80200602:	48 89 d8             	mov    %rbx,%rax
ffffffff80200605:	eb 3a                	jmp    ffffffff80200641 <create_kthread_user+0x166>
ffffffff80200607:	b8 00 00 00 00       	mov    $0x0,%eax
ffffffff8020060c:	eb 33                	jmp    ffffffff80200641 <create_kthread_user+0x166>
ffffffff8020060e:	48 c7 43 48 00 f0 bf 	movq   $0xbff000,0x48(%rbx)
ffffffff80200615:	00 
ffffffff80200616:	48 c7 03 f8 ff bf 00 	movq   $0xbffff8,(%rbx)
ffffffff8020061d:	48 05 f8 1f 00 00    	add    $0x1ff8,%rax
ffffffff80200623:	48 89 43 10          	mov    %rax,0x10(%rbx)
ffffffff80200627:	48 89 43 28          	mov    %rax,0x28(%rbx)
ffffffff8020062b:	44 89 6b 34          	mov    %r13d,0x34(%rbx)
ffffffff8020062f:	48 c7 43 58 00 00 00 	movq   $0x0,0x58(%rbx)
ffffffff80200636:	00 
ffffffff80200637:	b8 01 00 00 00       	mov    $0x1,%eax
ffffffff8020063c:	e9 42 ff ff ff       	jmpq   ffffffff80200583 <create_kthread_user+0xa8>
ffffffff80200641:	48 83 c4 08          	add    $0x8,%rsp
ffffffff80200645:	5b                   	pop    %rbx
ffffffff80200646:	5d                   	pop    %rbp
ffffffff80200647:	41 5c                	pop    %r12
ffffffff80200649:	41 5d                	pop    %r13
ffffffff8020064b:	c3                   	retq   

ffffffff8020064c <create_new_task>:
ffffffff8020064c:	48 83 ec 08          	sub    $0x8,%rsp
ffffffff80200650:	0f b7 d1             	movzwl %cx,%edx
ffffffff80200653:	e8 0a fe ff ff       	callq  ffffffff80200462 <setup_kthread_user>
ffffffff80200658:	48 83 c4 08          	add    $0x8,%rsp
ffffffff8020065c:	c3                   	retq   

ffffffff8020065d <do_exec>:
ffffffff8020065d:	41 54                	push   %r12
ffffffff8020065f:	55                   	push   %rbp
ffffffff80200660:	53                   	push   %rbx
ffffffff80200661:	48 81 ec a0 02 00 00 	sub    $0x2a0,%rsp
ffffffff80200668:	48 89 fb             	mov    %rdi,%rbx
ffffffff8020066b:	48 8d 3d 88 78 00 00 	lea    30856(%rip),%rdi        # ffffffff80207efa <__FUNCTION__.1376+0x289a>
ffffffff80200672:	b8 00 00 00 00       	mov    $0x0,%eax
ffffffff80200677:	e8 5f 24 00 00       	callq  ffffffff80202adb <printf>
ffffffff8020067c:	48 8d 4c 24 10       	lea    0x10(%rsp),%rcx
ffffffff80200681:	48 8d 54 24 1e       	lea    0x1e(%rsp),%rdx
ffffffff80200686:	48 8d 74 24 20       	lea    0x20(%rsp),%rsi
ffffffff8020068b:	48 89 df             	mov    %rbx,%rdi
ffffffff8020068e:	e8 18 fc ff ff       	callq  ffffffff802002ab <readelf>
ffffffff80200693:	ba 00 00 00 00       	mov    $0x0,%edx
ffffffff80200698:	66 85 c0             	test   %ax,%ax
ffffffff8020069b:	0f 84 f1 00 00 00    	je     ffffffff80200792 <do_exec+0x135>
ffffffff802006a1:	b2 01                	mov    $0x1,%dl
ffffffff802006a3:	be 0a 00 00 00       	mov    $0xa,%esi
ffffffff802006a8:	48 89 df             	mov    %rbx,%rdi
ffffffff802006ab:	e8 2b fe ff ff       	callq  ffffffff802004db <create_kthread_user>
ffffffff802006b0:	49 89 c4             	mov    %rax,%r12
ffffffff802006b3:	48 85 c0             	test   %rax,%rax
ffffffff802006b6:	0f 84 d1 00 00 00    	je     ffffffff8020078d <do_exec+0x130>
ffffffff802006bc:	66 83 7c 24 1e 00    	cmpw   $0x0,0x1e(%rsp)
ffffffff802006c2:	74 50                	je     ffffffff80200714 <do_exec+0xb7>
ffffffff802006c4:	bd 00 00 00 00       	mov    $0x0,%ebp
ffffffff802006c9:	0f b7 dd             	movzwl %bp,%ebx
ffffffff802006cc:	48 c1 e3 05          	shl    $0x5,%rbx
ffffffff802006d0:	4c 89 24 24          	mov    %r12,(%rsp)
ffffffff802006d4:	41 b9 00 00 00 00    	mov    $0x0,%r9d
ffffffff802006da:	41 b8 00 00 00 00    	mov    $0x0,%r8d
ffffffff802006e0:	b9 00 00 00 00       	mov    $0x0,%ecx
ffffffff802006e5:	ba 00 00 00 00       	mov    $0x0,%edx
ffffffff802006ea:	8b 74 1c 20          	mov    0x20(%rsp,%rbx,1),%esi
ffffffff802006ee:	48 8b 7c 1c 28       	mov    0x28(%rsp,%rbx,1),%rdi
ffffffff802006f3:	e8 48 1c 00 00       	callq  ffffffff80202340 <mmap>
ffffffff802006f8:	8b 54 1c 20          	mov    0x20(%rsp,%rbx,1),%edx
ffffffff802006fc:	48 8b 74 1c 38       	mov    0x38(%rsp,%rbx,1),%rsi
ffffffff80200701:	48 8b 7c 1c 30       	mov    0x30(%rsp,%rbx,1),%rdi
ffffffff80200706:	e8 a8 21 00 00       	callq  ffffffff802028b3 <memcpy>
ffffffff8020070b:	ff c5                	inc    %ebp
ffffffff8020070d:	66 39 6c 24 1e       	cmp    %bp,0x1e(%rsp)
ffffffff80200712:	77 b5                	ja     ffffffff802006c9 <do_exec+0x6c>
ffffffff80200714:	4c 89 24 24          	mov    %r12,(%rsp)
ffffffff80200718:	41 b9 00 00 00 00    	mov    $0x0,%r9d
ffffffff8020071e:	41 b8 00 00 00 00    	mov    $0x0,%r8d
ffffffff80200724:	b9 00 00 00 00       	mov    $0x0,%ecx
ffffffff80200729:	ba 00 00 00 00       	mov    $0x0,%edx
ffffffff8020072e:	be 00 10 00 00       	mov    $0x1000,%esi
ffffffff80200733:	bf 00 f0 bf 00       	mov    $0xbff000,%edi
ffffffff80200738:	e8 03 1c 00 00       	callq  ffffffff80202340 <mmap>
ffffffff8020073d:	41 b9 01 00 00 00    	mov    $0x1,%r9d
ffffffff80200743:	41 b8 0a 00 00 00    	mov    $0xa,%r8d
ffffffff80200749:	b9 00 00 00 00       	mov    $0x0,%ecx
ffffffff8020074e:	48 8d 15 ae 77 00 00 	lea    30638(%rip),%rdx        # ffffffff80207f03 <__FUNCTION__.1376+0x28a3>
ffffffff80200755:	48 8b 74 24 10       	mov    0x10(%rsp),%rsi
ffffffff8020075a:	4c 89 e7             	mov    %r12,%rdi
ffffffff8020075d:	e8 ea fe ff ff       	callq  ffffffff8020064c <create_new_task>
ffffffff80200762:	4c 89 e7             	mov    %r12,%rdi
ffffffff80200765:	e8 66 12 00 00       	callq  ffffffff802019d0 <add_to_ptable>
ffffffff8020076a:	b8 00 00 00 00       	mov    $0x0,%eax
ffffffff8020076f:	e8 85 12 00 00       	callq  ffffffff802019f9 <disable_interrupts>
ffffffff80200774:	4c 89 e7             	mov    %r12,%rdi
ffffffff80200777:	e8 d6 17 00 00       	callq  ffffffff80201f52 <runnable_kthread>
ffffffff8020077c:	b8 00 00 00 00       	mov    $0x0,%eax
ffffffff80200781:	e8 75 12 00 00       	callq  ffffffff802019fb <enable_interrupts>
ffffffff80200786:	ba 01 00 00 00       	mov    $0x1,%edx
ffffffff8020078b:	eb 05                	jmp    ffffffff80200792 <do_exec+0x135>
ffffffff8020078d:	ba 00 00 00 00       	mov    $0x0,%edx
ffffffff80200792:	89 d0                	mov    %edx,%eax
ffffffff80200794:	48 81 c4 a0 02 00 00 	add    $0x2a0,%rsp
ffffffff8020079b:	5b                   	pop    %rbx
ffffffff8020079c:	5d                   	pop    %rbp
ffffffff8020079d:	41 5c                	pop    %r12
ffffffff8020079f:	c3                   	retq   

ffffffff802007a0 <do_exec1>:
ffffffff802007a0:	41 55                	push   %r13
ffffffff802007a2:	41 54                	push   %r12
ffffffff802007a4:	55                   	push   %rbp
ffffffff802007a5:	53                   	push   %rbx
ffffffff802007a6:	48 81 ec a8 02 00 00 	sub    $0x2a8,%rsp
ffffffff802007ad:	49 89 fc             	mov    %rdi,%r12
ffffffff802007b0:	48 8b 2d e9 89 00 00 	mov    35305(%rip),%rbp        # ffffffff802091a0 <__FUNCTION__.1376+0x3b40>
ffffffff802007b7:	48 8b 5d 00          	mov    0x0(%rbp),%rbx
ffffffff802007bb:	48 c7 43 48 00 f0 bf 	movq   $0xbff000,0x48(%rbx)
ffffffff802007c2:	00 
ffffffff802007c3:	48 c7 03 f8 ff bf 00 	movq   $0xbffff8,(%rbx)
ffffffff802007ca:	48 8b 43 28          	mov    0x28(%rbx),%rax
ffffffff802007ce:	48 05 f8 1f 00 00    	add    $0x1ff8,%rax
ffffffff802007d4:	48 89 43 10          	mov    %rax,0x10(%rbx)
ffffffff802007d8:	48 89 43 28          	mov    %rax,0x28(%rbx)
ffffffff802007dc:	c7 43 34 0a 00 00 00 	movl   $0xa,0x34(%rbx)
ffffffff802007e3:	48 c7 43 58 00 00 00 	movq   $0x0,0x58(%rbx)
ffffffff802007ea:	00 
ffffffff802007eb:	c7 43 78 01 00 00 00 	movl   $0x1,0x78(%rbx)
ffffffff802007f2:	48 c7 43 08 00 00 00 	movq   $0x0,0x8(%rbx)
ffffffff802007f9:	00 
ffffffff802007fa:	c7 43 50 01 00 00 00 	movl   $0x1,0x50(%rbx)
ffffffff80200801:	c7 83 90 00 00 00 01 	movl   $0x1,0x90(%rbx)
ffffffff80200808:	00 00 00 
ffffffff8020080b:	c7 43 30 00 00 00 00 	movl   $0x0,0x30(%rbx)
ffffffff80200812:	48 89 bb 98 00 00 00 	mov    %rdi,0x98(%rbx)
ffffffff80200819:	b8 00 00 00 00       	mov    $0x0,%eax
ffffffff8020081e:	e8 d4 37 00 00       	callq  ffffffff80203ff7 <get_cr3_register>
ffffffff80200823:	48 89 43 18          	mov    %rax,0x18(%rbx)
ffffffff80200827:	48 8b 45 00          	mov    0x0(%rbp),%rax
ffffffff8020082b:	48 8b 50 20          	mov    0x20(%rax),%rdx
ffffffff8020082f:	48 89 53 20          	mov    %rdx,0x20(%rbx)
ffffffff80200833:	48 39 c3             	cmp    %rax,%rbx
ffffffff80200836:	74 21                	je     ffffffff80200859 <do_exec1+0xb9>
ffffffff80200838:	48 8d 3d a9 76 00 00 	lea    30377(%rip),%rdi        # ffffffff80207ee8 <__FUNCTION__.1376+0x2888>
ffffffff8020083f:	b8 00 00 00 00       	mov    $0x0,%eax
ffffffff80200844:	e8 92 22 00 00       	callq  ffffffff80202adb <printf>
ffffffff80200849:	b8 00 00 00 00       	mov    $0x0,%eax
ffffffff8020084e:	e8 b8 11 00 00       	callq  ffffffff80201a0b <alloc_pid>
ffffffff80200853:	89 83 a4 00 00 00    	mov    %eax,0xa4(%rbx)
ffffffff80200859:	48 8b 05 40 89 00 00 	mov    35136(%rip),%rax        # ffffffff802091a0 <__FUNCTION__.1376+0x3b40>
ffffffff80200860:	48 8b 30             	mov    (%rax),%rsi
ffffffff80200863:	48 8b 3d 7e 89 00 00 	mov    35198(%rip),%rdi        # ffffffff802091e8 <__FUNCTION__.1376+0x3b88>
ffffffff8020086a:	e8 15 12 00 00       	callq  ffffffff80201a84 <append_global_list_queue>
ffffffff8020086f:	48 8d 3d 93 76 00 00 	lea    30355(%rip),%rdi        # ffffffff80207f09 <__FUNCTION__.1376+0x28a9>
ffffffff80200876:	b8 00 00 00 00       	mov    $0x0,%eax
ffffffff8020087b:	e8 5b 22 00 00       	callq  ffffffff80202adb <printf>
ffffffff80200880:	48 8d 4c 24 10       	lea    0x10(%rsp),%rcx
ffffffff80200885:	48 8d 54 24 1e       	lea    0x1e(%rsp),%rdx
ffffffff8020088a:	48 8d 74 24 20       	lea    0x20(%rsp),%rsi
ffffffff8020088f:	4c 89 e7             	mov    %r12,%rdi
ffffffff80200892:	e8 14 fa ff ff       	callq  ffffffff802002ab <readelf>
ffffffff80200897:	66 85 c0             	test   %ax,%ax
ffffffff8020089a:	0f 84 d3 00 00 00    	je     ffffffff80200973 <do_exec1+0x1d3>
ffffffff802008a0:	66 83 7c 24 1e 00    	cmpw   $0x0,0x1e(%rsp)
ffffffff802008a6:	74 5b                	je     ffffffff80200903 <do_exec1+0x163>
ffffffff802008a8:	bd 00 00 00 00       	mov    $0x0,%ebp
ffffffff802008ad:	4c 8b 2d ec 88 00 00 	mov    35052(%rip),%r13        # ffffffff802091a0 <__FUNCTION__.1376+0x3b40>
ffffffff802008b4:	0f b7 dd             	movzwl %bp,%ebx
ffffffff802008b7:	48 c1 e3 05          	shl    $0x5,%rbx
ffffffff802008bb:	49 8b 45 00          	mov    0x0(%r13),%rax
ffffffff802008bf:	48 89 04 24          	mov    %rax,(%rsp)
ffffffff802008c3:	41 b9 00 00 00 00    	mov    $0x0,%r9d
ffffffff802008c9:	41 b8 00 00 00 00    	mov    $0x0,%r8d
ffffffff802008cf:	b9 00 00 00 00       	mov    $0x0,%ecx
ffffffff802008d4:	ba 00 00 00 00       	mov    $0x0,%edx
ffffffff802008d9:	8b 74 1c 20          	mov    0x20(%rsp,%rbx,1),%esi
ffffffff802008dd:	48 8b 7c 1c 28       	mov    0x28(%rsp,%rbx,1),%rdi
ffffffff802008e2:	e8 59 1a 00 00       	callq  ffffffff80202340 <mmap>
ffffffff802008e7:	8b 54 1c 20          	mov    0x20(%rsp,%rbx,1),%edx
ffffffff802008eb:	48 8b 74 1c 38       	mov    0x38(%rsp,%rbx,1),%rsi
ffffffff802008f0:	48 8b 7c 1c 30       	mov    0x30(%rsp,%rbx,1),%rdi
ffffffff802008f5:	e8 b9 1f 00 00       	callq  ffffffff802028b3 <memcpy>
ffffffff802008fa:	ff c5                	inc    %ebp
ffffffff802008fc:	66 39 6c 24 1e       	cmp    %bp,0x1e(%rsp)
ffffffff80200901:	77 b1                	ja     ffffffff802008b4 <do_exec1+0x114>
ffffffff80200903:	48 8b 1d 96 88 00 00 	mov    34966(%rip),%rbx        # ffffffff802091a0 <__FUNCTION__.1376+0x3b40>
ffffffff8020090a:	48 8b 03             	mov    (%rbx),%rax
ffffffff8020090d:	48 89 04 24          	mov    %rax,(%rsp)
ffffffff80200911:	41 b9 00 00 00 00    	mov    $0x0,%r9d
ffffffff80200917:	41 b8 00 00 00 00    	mov    $0x0,%r8d
ffffffff8020091d:	b9 00 00 00 00       	mov    $0x0,%ecx
ffffffff80200922:	ba 00 00 00 00       	mov    $0x0,%edx
ffffffff80200927:	be 00 10 00 00       	mov    $0x1000,%esi
ffffffff8020092c:	bf 00 f0 bf 00       	mov    $0xbff000,%edi
ffffffff80200931:	e8 0a 1a 00 00       	callq  ffffffff80202340 <mmap>
ffffffff80200936:	41 b9 01 00 00 00    	mov    $0x1,%r9d
ffffffff8020093c:	41 b8 0a 00 00 00    	mov    $0xa,%r8d
ffffffff80200942:	b9 00 00 00 00       	mov    $0x0,%ecx
ffffffff80200947:	4c 89 e2             	mov    %r12,%rdx
ffffffff8020094a:	48 8b 74 24 10       	mov    0x10(%rsp),%rsi
ffffffff8020094f:	48 8b 3b             	mov    (%rbx),%rdi
ffffffff80200952:	e8 f5 fc ff ff       	callq  ffffffff8020064c <create_new_task>
ffffffff80200957:	b8 00 00 00 00       	mov    $0x0,%eax
ffffffff8020095c:	e8 98 10 00 00       	callq  ffffffff802019f9 <disable_interrupts>
ffffffff80200961:	48 8b 3b             	mov    (%rbx),%rdi
ffffffff80200964:	e8 e9 15 00 00       	callq  ffffffff80201f52 <runnable_kthread>
ffffffff80200969:	b8 00 00 00 00       	mov    $0x0,%eax
ffffffff8020096e:	e8 88 10 00 00       	callq  ffffffff802019fb <enable_interrupts>
ffffffff80200973:	48 81 c4 a8 02 00 00 	add    $0x2a8,%rsp
ffffffff8020097a:	5b                   	pop    %rbx
ffffffff8020097b:	5d                   	pop    %rbp
ffffffff8020097c:	41 5c                	pop    %r12
ffffffff8020097e:	41 5d                	pop    %r13
ffffffff80200980:	c3                   	retq   

ffffffff80200981 <clear_vmas>:
ffffffff80200981:	41 54                	push   %r12
ffffffff80200983:	55                   	push   %rbp
ffffffff80200984:	53                   	push   %rbx
ffffffff80200985:	49 89 fc             	mov    %rdi,%r12
ffffffff80200988:	48 8b 9f a8 00 00 00 	mov    0xa8(%rdi),%rbx
ffffffff8020098f:	48 85 db             	test   %rbx,%rbx
ffffffff80200992:	74 28                	je     ffffffff802009bc <clear_vmas+0x3b>
ffffffff80200994:	48 8b 6b 20          	mov    0x20(%rbx),%rbp
ffffffff80200998:	ba 28 00 00 00       	mov    $0x28,%edx
ffffffff8020099d:	be 00 00 00 00       	mov    $0x0,%esi
ffffffff802009a2:	48 89 df             	mov    %rbx,%rdi
ffffffff802009a5:	e8 79 1e 00 00       	callq  ffffffff80202823 <memset>
ffffffff802009aa:	48 89 df             	mov    %rbx,%rdi
ffffffff802009ad:	e8 12 35 00 00       	callq  ffffffff80203ec4 <sub_free>
ffffffff802009b2:	48 85 ed             	test   %rbp,%rbp
ffffffff802009b5:	74 05                	je     ffffffff802009bc <clear_vmas+0x3b>
ffffffff802009b7:	48 89 eb             	mov    %rbp,%rbx
ffffffff802009ba:	eb d8                	jmp    ffffffff80200994 <clear_vmas+0x13>
ffffffff802009bc:	49 c7 84 24 b0 00 00 	movq   $0x0,0xb0(%r12)
ffffffff802009c3:	00 00 00 00 00 
ffffffff802009c8:	49 c7 84 24 a8 00 00 	movq   $0x0,0xa8(%r12)
ffffffff802009cf:	00 00 00 00 00 
ffffffff802009d4:	5b                   	pop    %rbx
ffffffff802009d5:	5d                   	pop    %rbp
ffffffff802009d6:	41 5c                	pop    %r12
ffffffff802009d8:	c3                   	retq   

ffffffff802009d9 <main_execve>:
ffffffff802009d9:	55                   	push   %rbp
ffffffff802009da:	53                   	push   %rbx
ffffffff802009db:	48 83 ec 28          	sub    $0x28,%rsp
ffffffff802009df:	48 89 fd             	mov    %rdi,%rbp
ffffffff802009e2:	48 8d 5c 24 02       	lea    0x2(%rsp),%rbx
ffffffff802009e7:	ba 1e 00 00 00       	mov    $0x1e,%edx
ffffffff802009ec:	be 00 00 00 00       	mov    $0x0,%esi
ffffffff802009f1:	48 89 df             	mov    %rbx,%rdi
ffffffff802009f4:	e8 2a 1e 00 00       	callq  ffffffff80202823 <memset>
ffffffff802009f9:	48 89 ef             	mov    %rbp,%rdi
ffffffff802009fc:	e8 17 23 00 00       	callq  ffffffff80202d18 <strlen>
ffffffff80200a01:	89 c2                	mov    %eax,%edx
ffffffff80200a03:	48 89 ee             	mov    %rbp,%rsi
ffffffff80200a06:	48 89 df             	mov    %rbx,%rdi
ffffffff80200a09:	e8 8c 1e 00 00       	callq  ffffffff8020289a <strncpy>
ffffffff80200a0e:	48 8b 2d 8b 87 00 00 	mov    34699(%rip),%rbp        # ffffffff802091a0 <__FUNCTION__.1376+0x3b40>
ffffffff80200a15:	48 8b 7d 00          	mov    0x0(%rbp),%rdi
ffffffff80200a19:	e8 63 ff ff ff       	callq  ffffffff80200981 <clear_vmas>
ffffffff80200a1e:	48 8b 45 00          	mov    0x0(%rbp),%rax
ffffffff80200a22:	48 8b 78 20          	mov    0x20(%rax),%rdi
ffffffff80200a26:	e8 8b 42 00 00       	callq  ffffffff80204cb6 <clear_page_tables>
ffffffff80200a2b:	48 8b 45 00          	mov    0x0(%rbp),%rax
ffffffff80200a2f:	48 8b 78 18          	mov    0x18(%rax),%rdi
ffffffff80200a33:	e8 28 06 00 00       	callq  ffffffff80201060 <reload_cr3>
ffffffff80200a38:	48 89 df             	mov    %rbx,%rdi
ffffffff80200a3b:	e8 60 fd ff ff       	callq  ffffffff802007a0 <do_exec1>
ffffffff80200a40:	48 83 c4 28          	add    $0x28,%rsp
ffffffff80200a44:	5b                   	pop    %rbx
ffffffff80200a45:	5d                   	pop    %rbp
ffffffff80200a46:	c3                   	retq   
	...

ffffffff80200a48 <reload_gdt>:
ffffffff80200a48:	48 83 ec 08          	sub    $0x8,%rsp
ffffffff80200a4c:	ba 10 00 00 00       	mov    $0x10,%edx
ffffffff80200a51:	be 08 00 00 00       	mov    $0x8,%esi
ffffffff80200a56:	48 8d 3d b3 38 06 00 	lea    407731(%rip),%rdi        # ffffffff80264310 <_binary_tarfs_end>
ffffffff80200a5d:	e8 52 26 00 00       	callq  ffffffff802030b4 <_x86_64_asm_lgdt>
ffffffff80200a62:	48 83 c4 08          	add    $0x8,%rsp
ffffffff80200a66:	c3                   	retq   

ffffffff80200a67 <setup_tss>:
ffffffff80200a67:	48 8b 05 2a 86 00 00 	mov    34346(%rip),%rax        # ffffffff80209098 <__FUNCTION__.1376+0x3a38>
ffffffff80200a6e:	66 c7 40 28 37 00    	movw   $0x37,0x28(%rax)
ffffffff80200a74:	48 8b 15 8d 86 00 00 	mov    34445(%rip),%rdx        # ffffffff80209108 <__FUNCTION__.1376+0x3aa8>
ffffffff80200a7b:	48 89 d6             	mov    %rdx,%rsi
ffffffff80200a7e:	81 e6 ff ff ff 00    	and    $0xffffff,%esi
ffffffff80200a84:	48 c1 e6 10          	shl    $0x10,%rsi
ffffffff80200a88:	48 b9 ff ff 00 00 00 	mov    $0xffffff000000ffff,%rcx
ffffffff80200a8f:	ff ff ff 
ffffffff80200a92:	48 23 48 28          	and    0x28(%rax),%rcx
ffffffff80200a96:	48 09 f1             	or     %rsi,%rcx
ffffffff80200a99:	48 89 48 28          	mov    %rcx,0x28(%rax)
ffffffff80200a9d:	0f b6 48 2d          	movzbl 0x2d(%rax),%ecx
ffffffff80200aa1:	83 e1 e0             	and    $0xffffffffffffffe0,%ecx
ffffffff80200aa4:	83 c9 09             	or     $0x9,%ecx
ffffffff80200aa7:	83 e1 9f             	and    $0xffffffffffffff9f,%ecx
ffffffff80200aaa:	83 c9 80             	or     $0xffffffffffffff80,%ecx
ffffffff80200aad:	88 48 2d             	mov    %cl,0x2d(%rax)
ffffffff80200ab0:	0f b6 48 2e          	movzbl 0x2e(%rax),%ecx
ffffffff80200ab4:	83 e1 70             	and    $0x70,%ecx
ffffffff80200ab7:	88 48 2e             	mov    %cl,0x2e(%rax)
ffffffff80200aba:	48 89 d1             	mov    %rdx,%rcx
ffffffff80200abd:	48 c1 e9 18          	shr    $0x18,%rcx
ffffffff80200ac1:	88 48 2f             	mov    %cl,0x2f(%rax)
ffffffff80200ac4:	48 c1 ea 20          	shr    $0x20,%rdx
ffffffff80200ac8:	89 50 30             	mov    %edx,0x30(%rax)
ffffffff80200acb:	c3                   	retq   

ffffffff80200acc <fault_handler>:
ffffffff80200acc:	48 81 ec b8 00 00 00 	sub    $0xb8,%rsp
ffffffff80200ad3:	48 89 e6             	mov    %rsp,%rsi
ffffffff80200ad6:	48 8b 47 78          	mov    0x78(%rdi),%rax
ffffffff80200ada:	48 3d 80 00 00 00    	cmp    $0x80,%rax
ffffffff80200ae0:	0f 87 01 02 00 00    	ja     ffffffff80200ce7 <fault_handler+0x21b>
ffffffff80200ae6:	48 83 f8 0e          	cmp    $0xe,%rax
ffffffff80200aea:	74 14                	je     ffffffff80200b00 <fault_handler+0x34>
ffffffff80200aec:	48 3d 80 00 00 00    	cmp    $0x80,%rax
ffffffff80200af2:	74 38                	je     ffffffff80200b2c <fault_handler+0x60>
ffffffff80200af4:	48 83 f8 0d          	cmp    $0xd,%rax
ffffffff80200af8:	0f 85 d6 01 00 00    	jne    ffffffff80200cd4 <fault_handler+0x208>
ffffffff80200afe:	eb 16                	jmp    ffffffff80200b16 <fault_handler+0x4a>
ffffffff80200b00:	48 8b bf 80 00 00 00 	mov    0x80(%rdi),%rdi
ffffffff80200b07:	e8 58 05 00 00       	callq  ffffffff80201064 <page_fault_handler>
ffffffff80200b0c:	b8 01 00 00 00       	mov    $0x1,%eax
ffffffff80200b11:	e9 dd 01 00 00       	jmpq   ffffffff80200cf3 <fault_handler+0x227>
ffffffff80200b16:	48 8b bf 80 00 00 00 	mov    0x80(%rdi),%rdi
ffffffff80200b1d:	e8 a3 07 00 00       	callq  ffffffff802012c5 <general_protection_fault_handler>
ffffffff80200b22:	b8 01 00 00 00       	mov    $0x1,%eax
ffffffff80200b27:	e9 c7 01 00 00       	jmpq   ffffffff80200cf3 <fault_handler+0x227>
ffffffff80200b2c:	48 8b 47 70          	mov    0x70(%rdi),%rax
ffffffff80200b30:	66 83 f8 14          	cmp    $0x14,%ax
ffffffff80200b34:	0f 87 b4 01 00 00    	ja     ffffffff80200cee <fault_handler+0x222>
ffffffff80200b3a:	0f b7 c8             	movzwl %ax,%ecx
ffffffff80200b3d:	48 8d 15 bc 46 00 00 	lea    18108(%rip),%rdx        # ffffffff80205200 <vmmgr_load_pml4+0x1c>
ffffffff80200b44:	48 63 0c 8a          	movslq (%rdx,%rcx,4),%rcx
ffffffff80200b48:	48 01 ca             	add    %rcx,%rdx
ffffffff80200b4b:	ff e2                	jmpq   *%rdx
ffffffff80200b4d:	b8 00 00 00 00       	mov    $0x0,%eax
ffffffff80200b52:	e8 bd 07 00 00       	callq  ffffffff80201314 <sys_exit>
ffffffff80200b57:	b8 01 00 00 00       	mov    $0x1,%eax
ffffffff80200b5c:	e9 92 01 00 00       	jmpq   ffffffff80200cf3 <fault_handler+0x227>
ffffffff80200b61:	48 8b 7f 48          	mov    0x48(%rdi),%rdi
ffffffff80200b65:	e8 7c 07 00 00       	callq  ffffffff802012e6 <write>
ffffffff80200b6a:	b8 01 00 00 00       	mov    $0x1,%eax
ffffffff80200b6f:	e9 7f 01 00 00       	jmpq   ffffffff80200cf3 <fault_handler+0x227>
ffffffff80200b74:	48 89 44 24 70       	mov    %rax,0x70(%rsp)
ffffffff80200b79:	48 8b 47 68          	mov    0x68(%rdi),%rax
ffffffff80200b7d:	48 89 44 24 68       	mov    %rax,0x68(%rsp)
ffffffff80200b82:	48 8b 47 60          	mov    0x60(%rdi),%rax
ffffffff80200b86:	48 89 44 24 60       	mov    %rax,0x60(%rsp)
ffffffff80200b8b:	48 8b 47 58          	mov    0x58(%rdi),%rax
ffffffff80200b8f:	48 89 44 24 58       	mov    %rax,0x58(%rsp)
ffffffff80200b94:	48 8b 47 40          	mov    0x40(%rdi),%rax
ffffffff80200b98:	48 89 44 24 40       	mov    %rax,0x40(%rsp)
ffffffff80200b9d:	48 8b 47 48          	mov    0x48(%rdi),%rax
ffffffff80200ba1:	48 89 44 24 48       	mov    %rax,0x48(%rsp)
ffffffff80200ba6:	48 8b 47 50          	mov    0x50(%rdi),%rax
ffffffff80200baa:	48 89 44 24 50       	mov    %rax,0x50(%rsp)
ffffffff80200baf:	48 8b 47 38          	mov    0x38(%rdi),%rax
ffffffff80200bb3:	48 89 44 24 38       	mov    %rax,0x38(%rsp)
ffffffff80200bb8:	48 8b 47 30          	mov    0x30(%rdi),%rax
ffffffff80200bbc:	48 89 44 24 30       	mov    %rax,0x30(%rsp)
ffffffff80200bc1:	48 8b 47 28          	mov    0x28(%rdi),%rax
ffffffff80200bc5:	48 89 44 24 28       	mov    %rax,0x28(%rsp)
ffffffff80200bca:	48 8b 47 20          	mov    0x20(%rdi),%rax
ffffffff80200bce:	48 89 44 24 20       	mov    %rax,0x20(%rsp)
ffffffff80200bd3:	48 8b 47 18          	mov    0x18(%rdi),%rax
ffffffff80200bd7:	48 89 44 24 18       	mov    %rax,0x18(%rsp)
ffffffff80200bdc:	48 8b 47 10          	mov    0x10(%rdi),%rax
ffffffff80200be0:	48 89 44 24 10       	mov    %rax,0x10(%rsp)
ffffffff80200be5:	48 8b 47 08          	mov    0x8(%rdi),%rax
ffffffff80200be9:	48 89 44 24 08       	mov    %rax,0x8(%rsp)
ffffffff80200bee:	48 8b 07             	mov    (%rdi),%rax
ffffffff80200bf1:	48 89 04 24          	mov    %rax,(%rsp)
ffffffff80200bf5:	48 8b 87 88 00 00 00 	mov    0x88(%rdi),%rax
ffffffff80200bfc:	48 89 84 24 88 00 00 	mov    %rax,0x88(%rsp)
ffffffff80200c03:	00 
ffffffff80200c04:	48 8b 87 90 00 00 00 	mov    0x90(%rdi),%rax
ffffffff80200c0b:	48 89 84 24 90 00 00 	mov    %rax,0x90(%rsp)
ffffffff80200c12:	00 
ffffffff80200c13:	48 8b 87 98 00 00 00 	mov    0x98(%rdi),%rax
ffffffff80200c1a:	48 89 84 24 98 00 00 	mov    %rax,0x98(%rsp)
ffffffff80200c21:	00 
ffffffff80200c22:	48 8b 87 a0 00 00 00 	mov    0xa0(%rdi),%rax
ffffffff80200c29:	48 89 84 24 a0 00 00 	mov    %rax,0xa0(%rsp)
ffffffff80200c30:	00 
ffffffff80200c31:	48 8b 87 a8 00 00 00 	mov    0xa8(%rdi),%rax
ffffffff80200c38:	48 89 84 24 a8 00 00 	mov    %rax,0xa8(%rsp)
ffffffff80200c3f:	00 
ffffffff80200c40:	48 c7 44 24 78 80 00 	movq   $0x80,0x78(%rsp)
ffffffff80200c47:	00 00 
ffffffff80200c49:	48 8b 87 80 00 00 00 	mov    0x80(%rdi),%rax
ffffffff80200c50:	48 89 84 24 80 00 00 	mov    %rax,0x80(%rsp)
ffffffff80200c57:	00 
ffffffff80200c58:	48 89 e7             	mov    %rsp,%rdi
ffffffff80200c5b:	e8 49 08 00 00       	callq  ffffffff802014a9 <fork>
ffffffff80200c60:	b8 00 00 00 00       	mov    $0x0,%eax
ffffffff80200c65:	e9 89 00 00 00       	jmpq   ffffffff80200cf3 <fault_handler+0x227>
ffffffff80200c6a:	48 8b 7f 48          	mov    0x48(%rdi),%rdi
ffffffff80200c6e:	e8 43 09 00 00       	callq  ffffffff802015b6 <sleep>
ffffffff80200c73:	b8 01 00 00 00       	mov    $0x1,%eax
ffffffff80200c78:	eb 79                	jmp    ffffffff80200cf3 <fault_handler+0x227>
ffffffff80200c7a:	48 8b 7f 48          	mov    0x48(%rdi),%rdi
ffffffff80200c7e:	e8 41 09 00 00       	callq  ffffffff802015c4 <doread>
ffffffff80200c83:	eb 6e                	jmp    ffffffff80200cf3 <fault_handler+0x227>
ffffffff80200c85:	b8 00 00 00 00       	mov    $0x0,%eax
ffffffff80200c8a:	e8 f0 09 00 00       	callq  ffffffff8020167f <wait>
ffffffff80200c8f:	b8 01 00 00 00       	mov    $0x1,%eax
ffffffff80200c94:	eb 5d                	jmp    ffffffff80200cf3 <fault_handler+0x227>
ffffffff80200c96:	48 8b 7f 48          	mov    0x48(%rdi),%rdi
ffffffff80200c9a:	b8 00 00 00 00       	mov    $0x0,%eax
ffffffff80200c9f:	e8 03 0a 00 00       	callq  ffffffff802016a7 <do_execve>
ffffffff80200ca4:	eb 4d                	jmp    ffffffff80200cf3 <fault_handler+0x227>
ffffffff80200ca6:	b8 00 00 00 00       	mov    $0x0,%eax
ffffffff80200cab:	e8 20 0a 00 00       	callq  ffffffff802016d0 <print_process>
ffffffff80200cb0:	b8 01 00 00 00       	mov    $0x1,%eax
ffffffff80200cb5:	eb 3c                	jmp    ffffffff80200cf3 <fault_handler+0x227>
ffffffff80200cb7:	b8 00 00 00 00       	mov    $0x0,%eax
ffffffff80200cbc:	e8 95 0a 00 00       	callq  ffffffff80201756 <do_cls>
ffffffff80200cc1:	b8 01 00 00 00       	mov    $0x1,%eax
ffffffff80200cc6:	eb 2b                	jmp    ffffffff80200cf3 <fault_handler+0x227>
ffffffff80200cc8:	b8 00 00 00 00       	mov    $0x0,%eax
ffffffff80200ccd:	e8 31 06 00 00       	callq  ffffffff80201303 <sys_getpid>
ffffffff80200cd2:	eb 1f                	jmp    ffffffff80200cf3 <fault_handler+0x227>
ffffffff80200cd4:	48 8d 35 75 4b 00 00 	lea    19317(%rip),%rsi        # ffffffff80205850 <__FUNCTION__.1376+0x1f0>
ffffffff80200cdb:	bf 1f 00 00 00       	mov    $0x1f,%edi
ffffffff80200ce0:	e8 6f 1d 00 00       	callq  ffffffff80202a54 <write_string>
ffffffff80200ce5:	eb fe                	jmp    ffffffff80200ce5 <fault_handler+0x219>
ffffffff80200ce7:	b8 01 00 00 00       	mov    $0x1,%eax
ffffffff80200cec:	eb 05                	jmp    ffffffff80200cf3 <fault_handler+0x227>
ffffffff80200cee:	b8 01 00 00 00       	mov    $0x1,%eax
ffffffff80200cf3:	48 81 c4 b8 00 00 00 	add    $0xb8,%rsp
ffffffff80200cfa:	c3                   	retq   

ffffffff80200cfb <idt_set_gate>:
ffffffff80200cfb:	40 0f b6 ff          	movzbl %dil,%edi
ffffffff80200cff:	48 c1 e7 04          	shl    $0x4,%rdi
ffffffff80200d03:	48 03 3d ce 84 00 00 	add    33998(%rip),%rdi        # ffffffff802091d8 <__FUNCTION__.1376+0x3b78>
ffffffff80200d0a:	66 89 37             	mov    %si,(%rdi)
ffffffff80200d0d:	48 89 f0             	mov    %rsi,%rax
ffffffff80200d10:	48 c1 e8 10          	shr    $0x10,%rax
ffffffff80200d14:	66 89 47 06          	mov    %ax,0x6(%rdi)
ffffffff80200d18:	48 c1 ee 20          	shr    $0x20,%rsi
ffffffff80200d1c:	89 77 08             	mov    %esi,0x8(%rdi)
ffffffff80200d1f:	66 89 57 02          	mov    %dx,0x2(%rdi)
ffffffff80200d23:	88 4f 05             	mov    %cl,0x5(%rdi)
ffffffff80200d26:	c6 47 04 00          	movb   $0x0,0x4(%rdi)
ffffffff80200d2a:	c7 47 0c 00 00 00 00 	movl   $0x0,0xc(%rdi)
ffffffff80200d31:	c3                   	retq   

ffffffff80200d32 <x86_64_asm_ltr>:
ffffffff80200d32:	48 83 ec 18          	sub    $0x18,%rsp
ffffffff80200d36:	66 c7 44 24 0e 2b 00 	movw   $0x2b,0xe(%rsp)
ffffffff80200d3d:	48 8d 7c 24 0e       	lea    0xe(%rsp),%rdi
ffffffff80200d42:	e8 95 23 00 00       	callq  ffffffff802030dc <_x86_64_asm_ltr>
ffffffff80200d47:	48 83 c4 18          	add    $0x18,%rsp
ffffffff80200d4b:	c3                   	retq   

ffffffff80200d4c <reload_idt>:
ffffffff80200d4c:	48 83 ec 08          	sub    $0x8,%rsp
ffffffff80200d50:	ba 00 10 00 00       	mov    $0x1000,%edx
ffffffff80200d55:	be 00 00 00 00       	mov    $0x0,%esi
ffffffff80200d5a:	48 8b 3d 77 84 00 00 	mov    33911(%rip),%rdi        # ffffffff802091d8 <__FUNCTION__.1376+0x3b78>
ffffffff80200d61:	e8 bd 1a 00 00       	callq  ffffffff80202823 <memset>
ffffffff80200d66:	b9 8e 00 00 00       	mov    $0x8e,%ecx
ffffffff80200d6b:	ba 08 00 00 00       	mov    $0x8,%edx
ffffffff80200d70:	48 8b 35 11 83 00 00 	mov    33553(%rip),%rsi        # ffffffff80209088 <__FUNCTION__.1376+0x3a28>
ffffffff80200d77:	bf 00 00 00 00       	mov    $0x0,%edi
ffffffff80200d7c:	e8 7a ff ff ff       	callq  ffffffff80200cfb <idt_set_gate>
ffffffff80200d81:	b9 8e 00 00 00       	mov    $0x8e,%ecx
ffffffff80200d86:	ba 08 00 00 00       	mov    $0x8,%edx
ffffffff80200d8b:	48 8b 35 86 83 00 00 	mov    33670(%rip),%rsi        # ffffffff80209118 <__FUNCTION__.1376+0x3ab8>
ffffffff80200d92:	bf 01 00 00 00       	mov    $0x1,%edi
ffffffff80200d97:	e8 5f ff ff ff       	callq  ffffffff80200cfb <idt_set_gate>
ffffffff80200d9c:	b9 8e 00 00 00       	mov    $0x8e,%ecx
ffffffff80200da1:	ba 08 00 00 00       	mov    $0x8,%edx
ffffffff80200da6:	48 8b 35 ab 83 00 00 	mov    33707(%rip),%rsi        # ffffffff80209158 <__FUNCTION__.1376+0x3af8>
ffffffff80200dad:	bf 0d 00 00 00       	mov    $0xd,%edi
ffffffff80200db2:	e8 44 ff ff ff       	callq  ffffffff80200cfb <idt_set_gate>
ffffffff80200db7:	b9 8e 00 00 00       	mov    $0x8e,%ecx
ffffffff80200dbc:	ba 08 00 00 00       	mov    $0x8,%edx
ffffffff80200dc1:	48 8b 35 30 84 00 00 	mov    33840(%rip),%rsi        # ffffffff802091f8 <__FUNCTION__.1376+0x3b98>
ffffffff80200dc8:	bf 0e 00 00 00       	mov    $0xe,%edi
ffffffff80200dcd:	e8 29 ff ff ff       	callq  ffffffff80200cfb <idt_set_gate>
ffffffff80200dd2:	b9 ee 00 00 00       	mov    $0xee,%ecx
ffffffff80200dd7:	ba 08 00 00 00       	mov    $0x8,%edx
ffffffff80200ddc:	48 8b 35 45 82 00 00 	mov    33349(%rip),%rsi        # ffffffff80209028 <__FUNCTION__.1376+0x39c8>
ffffffff80200de3:	bf 80 00 00 00       	mov    $0x80,%edi
ffffffff80200de8:	e8 0e ff ff ff       	callq  ffffffff80200cfb <idt_set_gate>
ffffffff80200ded:	48 8d 3d 26 35 06 00 	lea    406822(%rip),%rdi        # ffffffff8026431a <idtr>
ffffffff80200df4:	e8 df 22 00 00       	callq  ffffffff802030d8 <_x86_64_asm_lidt>
ffffffff80200df9:	b8 00 00 00 00       	mov    $0x0,%eax
ffffffff80200dfe:	e8 2f ff ff ff       	callq  ffffffff80200d32 <x86_64_asm_ltr>
ffffffff80200e03:	48 83 c4 08          	add    $0x8,%rsp
ffffffff80200e07:	c3                   	retq   

ffffffff80200e08 <irq_install_handler>:
ffffffff80200e08:	48 63 ff             	movslq %edi,%rdi
ffffffff80200e0b:	48 8b 05 0e 83 00 00 	mov    33550(%rip),%rax        # ffffffff80209120 <__FUNCTION__.1376+0x3ac0>
ffffffff80200e12:	48 89 34 f8          	mov    %rsi,(%rax,%rdi,8)
ffffffff80200e16:	c3                   	retq   

ffffffff80200e17 <irq_uninstall_handler>:
ffffffff80200e17:	48 63 ff             	movslq %edi,%rdi
ffffffff80200e1a:	48 8b 05 ff 82 00 00 	mov    33535(%rip),%rax        # ffffffff80209120 <__FUNCTION__.1376+0x3ac0>
ffffffff80200e21:	48 c7 04 f8 00 00 00 	movq   $0x0,(%rax,%rdi,8)
ffffffff80200e28:	00 
ffffffff80200e29:	c3                   	retq   

ffffffff80200e2a <irq_remap>:
ffffffff80200e2a:	b8 11 00 00 00       	mov    $0x11,%eax
ffffffff80200e2f:	e6 20                	out    %al,$0x20
ffffffff80200e31:	e6 a0                	out    %al,$0xa0
ffffffff80200e33:	b8 20 00 00 00       	mov    $0x20,%eax
ffffffff80200e38:	e6 21                	out    %al,$0x21
ffffffff80200e3a:	b8 28 00 00 00       	mov    $0x28,%eax
ffffffff80200e3f:	e6 a1                	out    %al,$0xa1
ffffffff80200e41:	b8 04 00 00 00       	mov    $0x4,%eax
ffffffff80200e46:	e6 21                	out    %al,$0x21
ffffffff80200e48:	b8 02 00 00 00       	mov    $0x2,%eax
ffffffff80200e4d:	e6 a1                	out    %al,$0xa1
ffffffff80200e4f:	b8 01 00 00 00       	mov    $0x1,%eax
ffffffff80200e54:	e6 21                	out    %al,$0x21
ffffffff80200e56:	e6 a1                	out    %al,$0xa1
ffffffff80200e58:	b8 00 00 00 00       	mov    $0x0,%eax
ffffffff80200e5d:	e6 21                	out    %al,$0x21
ffffffff80200e5f:	e6 a1                	out    %al,$0xa1
ffffffff80200e61:	c3                   	retq   

ffffffff80200e62 <irq_install>:
ffffffff80200e62:	48 83 ec 08          	sub    $0x8,%rsp
ffffffff80200e66:	b8 00 00 00 00       	mov    $0x0,%eax
ffffffff80200e6b:	e8 ba ff ff ff       	callq  ffffffff80200e2a <irq_remap>
ffffffff80200e70:	b9 8e 00 00 00       	mov    $0x8e,%ecx
ffffffff80200e75:	ba 08 00 00 00       	mov    $0x8,%edx
ffffffff80200e7a:	48 8b 35 2f 82 00 00 	mov    33327(%rip),%rsi        # ffffffff802090b0 <__FUNCTION__.1376+0x3a50>
ffffffff80200e81:	bf 20 00 00 00       	mov    $0x20,%edi
ffffffff80200e86:	e8 70 fe ff ff       	callq  ffffffff80200cfb <idt_set_gate>
ffffffff80200e8b:	b9 8e 00 00 00       	mov    $0x8e,%ecx
ffffffff80200e90:	ba 08 00 00 00       	mov    $0x8,%edx
ffffffff80200e95:	48 8b 35 b4 83 00 00 	mov    33716(%rip),%rsi        # ffffffff80209250 <__FUNCTION__.1376+0x3bf0>
ffffffff80200e9c:	bf 21 00 00 00       	mov    $0x21,%edi
ffffffff80200ea1:	e8 55 fe ff ff       	callq  ffffffff80200cfb <idt_set_gate>
ffffffff80200ea6:	b9 8e 00 00 00       	mov    $0x8e,%ecx
ffffffff80200eab:	ba 08 00 00 00       	mov    $0x8,%edx
ffffffff80200eb0:	48 8b 35 51 81 00 00 	mov    33105(%rip),%rsi        # ffffffff80209008 <__FUNCTION__.1376+0x39a8>
ffffffff80200eb7:	bf 22 00 00 00       	mov    $0x22,%edi
ffffffff80200ebc:	e8 3a fe ff ff       	callq  ffffffff80200cfb <idt_set_gate>
ffffffff80200ec1:	b9 8e 00 00 00       	mov    $0x8e,%ecx
ffffffff80200ec6:	ba 08 00 00 00       	mov    $0x8,%edx
ffffffff80200ecb:	48 8b 35 ae 83 00 00 	mov    33710(%rip),%rsi        # ffffffff80209280 <__FUNCTION__.1376+0x3c20>
ffffffff80200ed2:	bf 23 00 00 00       	mov    $0x23,%edi
ffffffff80200ed7:	e8 1f fe ff ff       	callq  ffffffff80200cfb <idt_set_gate>
ffffffff80200edc:	b9 8e 00 00 00       	mov    $0x8e,%ecx
ffffffff80200ee1:	ba 08 00 00 00       	mov    $0x8,%edx
ffffffff80200ee6:	48 8b 35 93 82 00 00 	mov    33427(%rip),%rsi        # ffffffff80209180 <__FUNCTION__.1376+0x3b20>
ffffffff80200eed:	bf 24 00 00 00       	mov    $0x24,%edi
ffffffff80200ef2:	e8 04 fe ff ff       	callq  ffffffff80200cfb <idt_set_gate>
ffffffff80200ef7:	b9 8e 00 00 00       	mov    $0x8e,%ecx
ffffffff80200efc:	ba 08 00 00 00       	mov    $0x8,%edx
ffffffff80200f01:	48 8b 35 b0 81 00 00 	mov    33200(%rip),%rsi        # ffffffff802090b8 <__FUNCTION__.1376+0x3a58>
ffffffff80200f08:	bf 25 00 00 00       	mov    $0x25,%edi
ffffffff80200f0d:	e8 e9 fd ff ff       	callq  ffffffff80200cfb <idt_set_gate>
ffffffff80200f12:	b9 8e 00 00 00       	mov    $0x8e,%ecx
ffffffff80200f17:	ba 08 00 00 00       	mov    $0x8,%edx
ffffffff80200f1c:	48 8b 35 4d 82 00 00 	mov    33357(%rip),%rsi        # ffffffff80209170 <__FUNCTION__.1376+0x3b10>
ffffffff80200f23:	bf 26 00 00 00       	mov    $0x26,%edi
ffffffff80200f28:	e8 ce fd ff ff       	callq  ffffffff80200cfb <idt_set_gate>
ffffffff80200f2d:	b9 8e 00 00 00       	mov    $0x8e,%ecx
ffffffff80200f32:	ba 08 00 00 00       	mov    $0x8,%edx
ffffffff80200f37:	48 8b 35 42 81 00 00 	mov    33090(%rip),%rsi        # ffffffff80209080 <__FUNCTION__.1376+0x3a20>
ffffffff80200f3e:	bf 27 00 00 00       	mov    $0x27,%edi
ffffffff80200f43:	e8 b3 fd ff ff       	callq  ffffffff80200cfb <idt_set_gate>
ffffffff80200f48:	b9 8e 00 00 00       	mov    $0x8e,%ecx
ffffffff80200f4d:	ba 08 00 00 00       	mov    $0x8,%edx
ffffffff80200f52:	48 8b 35 77 81 00 00 	mov    33143(%rip),%rsi        # ffffffff802090d0 <__FUNCTION__.1376+0x3a70>
ffffffff80200f59:	bf 28 00 00 00       	mov    $0x28,%edi
ffffffff80200f5e:	e8 98 fd ff ff       	callq  ffffffff80200cfb <idt_set_gate>
ffffffff80200f63:	b9 8e 00 00 00       	mov    $0x8e,%ecx
ffffffff80200f68:	ba 08 00 00 00       	mov    $0x8,%edx
ffffffff80200f6d:	48 8b 35 9c 82 00 00 	mov    33436(%rip),%rsi        # ffffffff80209210 <__FUNCTION__.1376+0x3bb0>
ffffffff80200f74:	bf 29 00 00 00       	mov    $0x29,%edi
ffffffff80200f79:	e8 7d fd ff ff       	callq  ffffffff80200cfb <idt_set_gate>
ffffffff80200f7e:	b9 8e 00 00 00       	mov    $0x8e,%ecx
ffffffff80200f83:	ba 08 00 00 00       	mov    $0x8,%edx
ffffffff80200f88:	48 8b 35 91 82 00 00 	mov    33425(%rip),%rsi        # ffffffff80209220 <__FUNCTION__.1376+0x3bc0>
ffffffff80200f8f:	bf 2a 00 00 00       	mov    $0x2a,%edi
ffffffff80200f94:	e8 62 fd ff ff       	callq  ffffffff80200cfb <idt_set_gate>
ffffffff80200f99:	b9 8e 00 00 00       	mov    $0x8e,%ecx
ffffffff80200f9e:	ba 08 00 00 00       	mov    $0x8,%edx
ffffffff80200fa3:	48 8b 35 ce 81 00 00 	mov    33230(%rip),%rsi        # ffffffff80209178 <__FUNCTION__.1376+0x3b18>
ffffffff80200faa:	bf 2b 00 00 00       	mov    $0x2b,%edi
ffffffff80200faf:	e8 47 fd ff ff       	callq  ffffffff80200cfb <idt_set_gate>
ffffffff80200fb4:	b9 8e 00 00 00       	mov    $0x8e,%ecx
ffffffff80200fb9:	ba 08 00 00 00       	mov    $0x8,%edx
ffffffff80200fbe:	48 8b 35 ab 82 00 00 	mov    33451(%rip),%rsi        # ffffffff80209270 <__FUNCTION__.1376+0x3c10>
ffffffff80200fc5:	bf 2c 00 00 00       	mov    $0x2c,%edi
ffffffff80200fca:	e8 2c fd ff ff       	callq  ffffffff80200cfb <idt_set_gate>
ffffffff80200fcf:	b9 8e 00 00 00       	mov    $0x8e,%ecx
ffffffff80200fd4:	ba 08 00 00 00       	mov    $0x8,%edx
ffffffff80200fd9:	48 8b 35 b0 81 00 00 	mov    33200(%rip),%rsi        # ffffffff80209190 <__FUNCTION__.1376+0x3b30>
ffffffff80200fe0:	bf 2d 00 00 00       	mov    $0x2d,%edi
ffffffff80200fe5:	e8 11 fd ff ff       	callq  ffffffff80200cfb <idt_set_gate>
ffffffff80200fea:	b9 8e 00 00 00       	mov    $0x8e,%ecx
ffffffff80200fef:	ba 08 00 00 00       	mov    $0x8,%edx
ffffffff80200ff4:	48 8b 35 cd 80 00 00 	mov    32973(%rip),%rsi        # ffffffff802090c8 <__FUNCTION__.1376+0x3a68>
ffffffff80200ffb:	bf 2e 00 00 00       	mov    $0x2e,%edi
ffffffff80201000:	e8 f6 fc ff ff       	callq  ffffffff80200cfb <idt_set_gate>
ffffffff80201005:	b9 8e 00 00 00       	mov    $0x8e,%ecx
ffffffff8020100a:	ba 08 00 00 00       	mov    $0x8,%edx
ffffffff8020100f:	48 8b 35 32 82 00 00 	mov    33330(%rip),%rsi        # ffffffff80209248 <__FUNCTION__.1376+0x3be8>
ffffffff80201016:	bf 2f 00 00 00       	mov    $0x2f,%edi
ffffffff8020101b:	e8 db fc ff ff       	callq  ffffffff80200cfb <idt_set_gate>
ffffffff80201020:	48 83 c4 08          	add    $0x8,%rsp
ffffffff80201024:	c3                   	retq   

ffffffff80201025 <irq_handler>:
ffffffff80201025:	53                   	push   %rbx
ffffffff80201026:	48 89 fb             	mov    %rdi,%rbx
ffffffff80201029:	48 8b 57 78          	mov    0x78(%rdi),%rdx
ffffffff8020102d:	48 8b 05 ec 80 00 00 	mov    33004(%rip),%rax        # ffffffff80209120 <__FUNCTION__.1376+0x3ac0>
ffffffff80201034:	48 8b 84 d0 70 fe ff 	mov    0xfffffffffffffe70(%rax,%rdx,8),%rax
ffffffff8020103b:	ff 
ffffffff8020103c:	48 85 c0             	test   %rax,%rax
ffffffff8020103f:	74 02                	je     ffffffff80201043 <irq_handler+0x1e>
ffffffff80201041:	ff d0                	callq  *%rax
ffffffff80201043:	48 83 7b 78 27       	cmpq   $0x27,0x78(%rbx)
ffffffff80201048:	76 07                	jbe    ffffffff80201051 <irq_handler+0x2c>
ffffffff8020104a:	b8 20 00 00 00       	mov    $0x20,%eax
ffffffff8020104f:	e6 a0                	out    %al,$0xa0
ffffffff80201051:	b8 20 00 00 00       	mov    $0x20,%eax
ffffffff80201056:	e6 20                	out    %al,$0x20
ffffffff80201058:	5b                   	pop    %rbx
ffffffff80201059:	c3                   	retq   
ffffffff8020105a:	00 00                	add    %al,(%rax)
ffffffff8020105c:	00 00                	add    %al,(%rax)
	...

ffffffff80201060 <reload_cr3>:
ffffffff80201060:	0f 22 df             	mov    %rdi,%cr3
ffffffff80201063:	c3                   	retq   

ffffffff80201064 <page_fault_handler>:
ffffffff80201064:	41 57                	push   %r15
ffffffff80201066:	41 56                	push   %r14
ffffffff80201068:	41 55                	push   %r13
ffffffff8020106a:	41 54                	push   %r12
ffffffff8020106c:	55                   	push   %rbp
ffffffff8020106d:	53                   	push   %rbx
ffffffff8020106e:	48 81 ec 18 10 00 00 	sub    $0x1018,%rsp
ffffffff80201075:	48 89 fd             	mov    %rdi,%rbp
ffffffff80201078:	49 89 f4             	mov    %rsi,%r12
ffffffff8020107b:	0f 20 d3             	mov    %cr2,%rbx
ffffffff8020107e:	48 89 df             	mov    %rbx,%rdi
ffffffff80201081:	e8 e2 38 00 00       	callq  ffffffff80204968 <get_pte_recurse>
ffffffff80201086:	48 8b 15 13 81 00 00 	mov    33043(%rip),%rdx        # ffffffff802091a0 <__FUNCTION__.1376+0x3b40>
ffffffff8020108d:	48 8b 12             	mov    (%rdx),%rdx
ffffffff80201090:	48 83 7a 08 00       	cmpq   $0x0,0x8(%rdx)
ffffffff80201095:	0f 85 c8 00 00 00    	jne    ffffffff80201163 <page_fault_handler+0xff>
ffffffff8020109b:	48 8b 8a a8 00 00 00 	mov    0xa8(%rdx),%rcx
ffffffff802010a2:	48 85 c9             	test   %rcx,%rcx
ffffffff802010a5:	0f 84 b8 00 00 00    	je     ffffffff80201163 <page_fault_handler+0xff>
ffffffff802010ab:	49 89 dd             	mov    %rbx,%r13
ffffffff802010ae:	48 8b 71 08          	mov    0x8(%rcx),%rsi
ffffffff802010b2:	48 29 de             	sub    %rbx,%rsi
ffffffff802010b5:	48 83 fe 64          	cmp    $0x64,%rsi
ffffffff802010b9:	0f 87 97 00 00 00    	ja     ffffffff80201156 <page_fault_handler+0xf2>
ffffffff802010bf:	eb 11                	jmp    ffffffff802010d2 <page_fault_handler+0x6e>
ffffffff802010c1:	48 8b 71 08          	mov    0x8(%rcx),%rsi
ffffffff802010c5:	4c 29 ee             	sub    %r13,%rsi
ffffffff802010c8:	48 83 fe 64          	cmp    $0x64,%rsi
ffffffff802010cc:	0f 87 84 00 00 00    	ja     ffffffff80201156 <page_fault_handler+0xf2>
ffffffff802010d2:	8b 42 50             	mov    0x50(%rdx),%eax
ffffffff802010d5:	83 f8 04             	cmp    $0x4,%eax
ffffffff802010d8:	7f 40                	jg     ffffffff8020111a <page_fault_handler+0xb6>
ffffffff802010da:	ff c0                	inc    %eax
ffffffff802010dc:	89 42 50             	mov    %eax,0x50(%rdx)
ffffffff802010df:	48 8b 82 b0 00 00 00 	mov    0xb0(%rdx),%rax
ffffffff802010e6:	48 8b 78 08          	mov    0x8(%rax),%rdi
ffffffff802010ea:	48 81 ef 00 10 00 00 	sub    $0x1000,%rdi
ffffffff802010f1:	48 89 14 24          	mov    %rdx,(%rsp)
ffffffff802010f5:	41 b9 00 00 00 00    	mov    $0x0,%r9d
ffffffff802010fb:	41 b8 00 00 00 00    	mov    $0x0,%r8d
ffffffff80201101:	b9 00 00 00 00       	mov    $0x0,%ecx
ffffffff80201106:	ba 00 00 00 00       	mov    $0x0,%edx
ffffffff8020110b:	be 00 10 00 00       	mov    $0x1000,%esi
ffffffff80201110:	e8 2b 12 00 00       	callq  ffffffff80202340 <mmap>
ffffffff80201115:	e9 99 01 00 00       	jmpq   ffffffff802012b3 <page_fault_handler+0x24f>
ffffffff8020111a:	8b b2 a4 00 00 00    	mov    0xa4(%rdx),%esi
ffffffff80201120:	48 8d 3d 51 47 00 00 	lea    18257(%rip),%rdi        # ffffffff80205878 <__FUNCTION__.1376+0x218>
ffffffff80201127:	b8 00 00 00 00       	mov    $0x0,%eax
ffffffff8020112c:	e8 aa 19 00 00       	callq  ffffffff80202adb <printf>
ffffffff80201131:	48 8b 05 68 80 00 00 	mov    32872(%rip),%rax        # ffffffff802091a0 <__FUNCTION__.1376+0x3b40>
ffffffff80201138:	48 8b 30             	mov    (%rax),%rsi
ffffffff8020113b:	c7 86 90 00 00 00 00 	movl   $0x0,0x90(%rsi)
ffffffff80201142:	00 00 00 
ffffffff80201145:	48 8b 3d 14 80 00 00 	mov    32788(%rip),%rdi        # ffffffff80209160 <__FUNCTION__.1376+0x3b00>
ffffffff8020114c:	e8 53 0a 00 00       	callq  ffffffff80201ba4 <remove_runnable_kthread>
ffffffff80201151:	e9 5d 01 00 00       	jmpq   ffffffff802012b3 <page_fault_handler+0x24f>
ffffffff80201156:	48 8b 49 20          	mov    0x20(%rcx),%rcx
ffffffff8020115a:	48 85 c9             	test   %rcx,%rcx
ffffffff8020115d:	0f 85 5e ff ff ff    	jne    ffffffff802010c1 <page_fault_handler+0x5d>
ffffffff80201163:	f6 40 07 40          	testb  $0x40,0x7(%rax)
ffffffff80201167:	74 67                	je     ffffffff802011d0 <page_fault_handler+0x16c>
ffffffff80201169:	b8 00 00 00 00       	mov    $0x0,%eax
ffffffff8020116e:	e8 6b 27 00 00       	callq  ffffffff802038de <mmgr_alloc_block>
ffffffff80201173:	49 89 c5             	mov    %rax,%r13
ffffffff80201176:	48 bd 00 f0 ff ff ff 	mov    $0xffffffffff000,%rbp
ffffffff8020117d:	ff 0f 00 
ffffffff80201180:	48 21 dd             	and    %rbx,%rbp
ffffffff80201183:	4c 8d 64 24 10       	lea    0x10(%rsp),%r12
ffffffff80201188:	ba 00 10 00 00       	mov    $0x1000,%edx
ffffffff8020118d:	48 89 ee             	mov    %rbp,%rsi
ffffffff80201190:	4c 89 e7             	mov    %r12,%rdi
ffffffff80201193:	e8 1b 17 00 00       	callq  ffffffff802028b3 <memcpy>
ffffffff80201198:	ba 01 00 00 00       	mov    $0x1,%edx
ffffffff8020119d:	48 89 de             	mov    %rbx,%rsi
ffffffff802011a0:	4c 89 ef             	mov    %r13,%rdi
ffffffff802011a3:	e8 f8 3b 00 00       	callq  ffffffff80204da0 <vmmgr_map_page_after_paging>
ffffffff802011a8:	48 8b 05 f1 7f 00 00 	mov    32753(%rip),%rax        # ffffffff802091a0 <__FUNCTION__.1376+0x3b40>
ffffffff802011af:	48 8b 00             	mov    (%rax),%rax
ffffffff802011b2:	48 8b 78 18          	mov    0x18(%rax),%rdi
ffffffff802011b6:	e8 a5 fe ff ff       	callq  ffffffff80201060 <reload_cr3>
ffffffff802011bb:	ba 00 10 00 00       	mov    $0x1000,%edx
ffffffff802011c0:	4c 89 e6             	mov    %r12,%rsi
ffffffff802011c3:	48 89 ef             	mov    %rbp,%rdi
ffffffff802011c6:	e8 e8 16 00 00       	callq  ffffffff802028b3 <memcpy>
ffffffff802011cb:	e9 e3 00 00 00       	jmpq   ffffffff802012b3 <page_fault_handler+0x24f>
ffffffff802011d0:	41 89 ef             	mov    %ebp,%r15d
ffffffff802011d3:	41 83 e7 02          	and    $0x2,%r15d
ffffffff802011d7:	41 89 ee             	mov    %ebp,%r14d
ffffffff802011da:	41 83 e6 04          	and    $0x4,%r14d
ffffffff802011de:	41 89 ed             	mov    %ebp,%r13d
ffffffff802011e1:	41 83 e5 08          	and    $0x8,%r13d
ffffffff802011e5:	48 8d 3d 26 6d 00 00 	lea    27942(%rip),%rdi        # ffffffff80207f12 <__FUNCTION__.1376+0x28b2>
ffffffff802011ec:	b8 00 00 00 00       	mov    $0x0,%eax
ffffffff802011f1:	e8 e5 18 00 00       	callq  ffffffff80202adb <printf>
ffffffff802011f6:	40 f6 c5 01          	test   $0x1,%bpl
ffffffff802011fa:	75 11                	jne    ffffffff8020120d <page_fault_handler+0x1a9>
ffffffff802011fc:	48 8d 3d 1e 6d 00 00 	lea    27934(%rip),%rdi        # ffffffff80207f21 <__FUNCTION__.1376+0x28c1>
ffffffff80201203:	b8 00 00 00 00       	mov    $0x0,%eax
ffffffff80201208:	e8 ce 18 00 00       	callq  ffffffff80202adb <printf>
ffffffff8020120d:	45 85 ff             	test   %r15d,%r15d
ffffffff80201210:	74 11                	je     ffffffff80201223 <page_fault_handler+0x1bf>
ffffffff80201212:	48 8d 3d 1a 6d 00 00 	lea    27930(%rip),%rdi        # ffffffff80207f33 <__FUNCTION__.1376+0x28d3>
ffffffff80201219:	b8 00 00 00 00       	mov    $0x0,%eax
ffffffff8020121e:	e8 b8 18 00 00       	callq  ffffffff80202adb <printf>
ffffffff80201223:	45 85 f6             	test   %r14d,%r14d
ffffffff80201226:	74 11                	je     ffffffff80201239 <page_fault_handler+0x1d5>
ffffffff80201228:	48 8d 3d 0f 6d 00 00 	lea    27919(%rip),%rdi        # ffffffff80207f3e <__FUNCTION__.1376+0x28de>
ffffffff8020122f:	b8 00 00 00 00       	mov    $0x0,%eax
ffffffff80201234:	e8 a2 18 00 00       	callq  ffffffff80202adb <printf>
ffffffff80201239:	45 85 ed             	test   %r13d,%r13d
ffffffff8020123c:	74 11                	je     ffffffff8020124f <page_fault_handler+0x1eb>
ffffffff8020123e:	48 8d 3d 04 6d 00 00 	lea    27908(%rip),%rdi        # ffffffff80207f49 <__FUNCTION__.1376+0x28e9>
ffffffff80201245:	b8 00 00 00 00       	mov    $0x0,%eax
ffffffff8020124a:	e8 8c 18 00 00       	callq  ffffffff80202adb <printf>
ffffffff8020124f:	48 8d 3d fd 6c 00 00 	lea    27901(%rip),%rdi        # ffffffff80207f53 <__FUNCTION__.1376+0x28f3>
ffffffff80201256:	b8 00 00 00 00       	mov    $0x0,%eax
ffffffff8020125b:	e8 7b 18 00 00       	callq  ffffffff80202adb <printf>
ffffffff80201260:	48 89 de             	mov    %rbx,%rsi
ffffffff80201263:	48 8d 3d f1 6c 00 00 	lea    27889(%rip),%rdi        # ffffffff80207f5b <__FUNCTION__.1376+0x28fb>
ffffffff8020126a:	b8 00 00 00 00       	mov    $0x0,%eax
ffffffff8020126f:	e8 67 18 00 00       	callq  ffffffff80202adb <printf>
ffffffff80201274:	48 8d 3d 62 6e 00 00 	lea    28258(%rip),%rdi        # ffffffff802080dd <__FUNCTION__.1376+0x2a7d>
ffffffff8020127b:	b8 00 00 00 00       	mov    $0x0,%eax
ffffffff80201280:	e8 56 18 00 00       	callq  ffffffff80202adb <printf>
ffffffff80201285:	4c 89 e6             	mov    %r12,%rsi
ffffffff80201288:	48 8d 3d cf 6c 00 00 	lea    27855(%rip),%rdi        # ffffffff80207f5e <__FUNCTION__.1376+0x28fe>
ffffffff8020128f:	b8 00 00 00 00       	mov    $0x0,%eax
ffffffff80201294:	e8 42 18 00 00       	callq  ffffffff80202adb <printf>
ffffffff80201299:	48 8d 15 cf 6c 00 00 	lea    27855(%rip),%rdx        # ffffffff80207f6f <__FUNCTION__.1376+0x290f>
ffffffff802012a0:	be 58 00 00 00       	mov    $0x58,%esi
ffffffff802012a5:	48 8d 3d 04 40 00 00 	lea    16388(%rip),%rdi        # ffffffff802052b0 <__FUNCTION__.1534>
ffffffff802012ac:	e8 83 1a 00 00       	callq  ffffffff80202d34 <PANIC>
ffffffff802012b1:	eb fe                	jmp    ffffffff802012b1 <page_fault_handler+0x24d>
ffffffff802012b3:	48 81 c4 18 10 00 00 	add    $0x1018,%rsp
ffffffff802012ba:	5b                   	pop    %rbx
ffffffff802012bb:	5d                   	pop    %rbp
ffffffff802012bc:	41 5c                	pop    %r12
ffffffff802012be:	41 5d                	pop    %r13
ffffffff802012c0:	41 5e                	pop    %r14
ffffffff802012c2:	41 5f                	pop    %r15
ffffffff802012c4:	c3                   	retq   

ffffffff802012c5 <general_protection_fault_handler>:
ffffffff802012c5:	48 83 ec 08          	sub    $0x8,%rsp
ffffffff802012c9:	48 8d 15 ac 6c 00 00 	lea    27820(%rip),%rdx        # ffffffff80207f7c <__FUNCTION__.1376+0x291c>
ffffffff802012d0:	be 5e 00 00 00       	mov    $0x5e,%esi
ffffffff802012d5:	48 8d 3d a4 3f 00 00 	lea    16292(%rip),%rdi        # ffffffff80205280 <__FUNCTION__.1539>
ffffffff802012dc:	e8 53 1a 00 00       	callq  ffffffff80202d34 <PANIC>
ffffffff802012e1:	48 83 c4 08          	add    $0x8,%rsp
ffffffff802012e5:	c3                   	retq   

ffffffff802012e6 <write>:
ffffffff802012e6:	48 83 ec 08          	sub    $0x8,%rsp
ffffffff802012ea:	48 89 fe             	mov    %rdi,%rsi
ffffffff802012ed:	48 8d 3d a3 6c 00 00 	lea    27811(%rip),%rdi        # ffffffff80207f97 <__FUNCTION__.1376+0x2937>
ffffffff802012f4:	b8 00 00 00 00       	mov    $0x0,%eax
ffffffff802012f9:	e8 dd 17 00 00       	callq  ffffffff80202adb <printf>
ffffffff802012fe:	48 83 c4 08          	add    $0x8,%rsp
ffffffff80201302:	c3                   	retq   

ffffffff80201303 <sys_getpid>:
ffffffff80201303:	48 8b 05 96 7e 00 00 	mov    32406(%rip),%rax        # ffffffff802091a0 <__FUNCTION__.1376+0x3b40>
ffffffff8020130a:	48 8b 00             	mov    (%rax),%rax
ffffffff8020130d:	8b 80 a4 00 00 00    	mov    0xa4(%rax),%eax
ffffffff80201313:	c3                   	retq   

ffffffff80201314 <sys_exit>:
ffffffff80201314:	55                   	push   %rbp
ffffffff80201315:	53                   	push   %rbx
ffffffff80201316:	48 83 ec 08          	sub    $0x8,%rsp
ffffffff8020131a:	48 8b 1d 7f 7e 00 00 	mov    32383(%rip),%rbx        # ffffffff802091a0 <__FUNCTION__.1376+0x3b40>
ffffffff80201321:	48 8b 03             	mov    (%rbx),%rax
ffffffff80201324:	8b b0 a4 00 00 00    	mov    0xa4(%rax),%esi
ffffffff8020132a:	48 8d 3d 69 6c 00 00 	lea    27753(%rip),%rdi        # ffffffff80207f9a <__FUNCTION__.1376+0x293a>
ffffffff80201331:	b8 00 00 00 00       	mov    $0x0,%eax
ffffffff80201336:	e8 a0 17 00 00       	callq  ffffffff80202adb <printf>
ffffffff8020133b:	48 8b 03             	mov    (%rbx),%rax
ffffffff8020133e:	48 8b 1d 23 7f 00 00 	mov    32547(%rip),%rbx        # ffffffff80209268 <__FUNCTION__.1376+0x3c08>
ffffffff80201345:	48 63 a8 a4 00 00 00 	movslq 0xa4(%rax),%rbp
ffffffff8020134c:	48 8b 3c eb          	mov    (%rbx,%rbp,8),%rdi
ffffffff80201350:	e8 b4 08 00 00       	callq  ffffffff80201c09 <thread_cleanup>
ffffffff80201355:	48 c7 04 eb 00 00 00 	movq   $0x0,(%rbx,%rbp,8)
ffffffff8020135c:	00 
ffffffff8020135d:	b8 00 00 00 00       	mov    $0x0,%eax
ffffffff80201362:	e8 b2 06 00 00       	callq  ffffffff80201a19 <free_pid>
ffffffff80201367:	48 83 c4 08          	add    $0x8,%rsp
ffffffff8020136b:	5b                   	pop    %rbx
ffffffff8020136c:	5d                   	pop    %rbp
ffffffff8020136d:	c3                   	retq   

ffffffff8020136e <PushU>:
ffffffff8020136e:	48 8b 47 10          	mov    0x10(%rdi),%rax
ffffffff80201372:	48 8d 50 f8          	lea    0xfffffffffffffff8(%rax),%rdx
ffffffff80201376:	48 89 57 10          	mov    %rdx,0x10(%rdi)
ffffffff8020137a:	48 89 70 f8          	mov    %rsi,0xfffffffffffffff8(%rax)
ffffffff8020137e:	c3                   	retq   

ffffffff8020137f <fork_int>:
ffffffff8020137f:	41 54                	push   %r12
ffffffff80201381:	55                   	push   %rbp
ffffffff80201382:	53                   	push   %rbx
ffffffff80201383:	48 89 fb             	mov    %rdi,%rbx
ffffffff80201386:	48 89 f5             	mov    %rsi,%rbp
ffffffff80201389:	4c 63 a7 a4 00 00 00 	movslq 0xa4(%rdi),%r12
ffffffff80201390:	be 23 00 00 00       	mov    $0x23,%esi
ffffffff80201395:	e8 d4 ff ff ff       	callq  ffffffff8020136e <PushU>
ffffffff8020139a:	48 8b b5 a0 00 00 00 	mov    0xa0(%rbp),%rsi
ffffffff802013a1:	48 89 df             	mov    %rbx,%rdi
ffffffff802013a4:	e8 c5 ff ff ff       	callq  ffffffff8020136e <PushU>
ffffffff802013a9:	48 8b b5 98 00 00 00 	mov    0x98(%rbp),%rsi
ffffffff802013b0:	48 89 df             	mov    %rbx,%rdi
ffffffff802013b3:	e8 b6 ff ff ff       	callq  ffffffff8020136e <PushU>
ffffffff802013b8:	48 8b b5 90 00 00 00 	mov    0x90(%rbp),%rsi
ffffffff802013bf:	48 89 df             	mov    %rbx,%rdi
ffffffff802013c2:	e8 a7 ff ff ff       	callq  ffffffff8020136e <PushU>
ffffffff802013c7:	48 8b b5 88 00 00 00 	mov    0x88(%rbp),%rsi
ffffffff802013ce:	48 89 df             	mov    %rbx,%rdi
ffffffff802013d1:	e8 98 ff ff ff       	callq  ffffffff8020136e <PushU>
ffffffff802013d6:	48 8b 75 78          	mov    0x78(%rbp),%rsi
ffffffff802013da:	48 89 df             	mov    %rbx,%rdi
ffffffff802013dd:	e8 8c ff ff ff       	callq  ffffffff8020136e <PushU>
ffffffff802013e2:	48 8b b5 80 00 00 00 	mov    0x80(%rbp),%rsi
ffffffff802013e9:	48 89 df             	mov    %rbx,%rdi
ffffffff802013ec:	e8 7d ff ff ff       	callq  ffffffff8020136e <PushU>
ffffffff802013f1:	4c 89 e6             	mov    %r12,%rsi
ffffffff802013f4:	48 89 df             	mov    %rbx,%rdi
ffffffff802013f7:	e8 72 ff ff ff       	callq  ffffffff8020136e <PushU>
ffffffff802013fc:	48 8b 75 68          	mov    0x68(%rbp),%rsi
ffffffff80201400:	48 89 df             	mov    %rbx,%rdi
ffffffff80201403:	e8 66 ff ff ff       	callq  ffffffff8020136e <PushU>
ffffffff80201408:	48 8b 75 60          	mov    0x60(%rbp),%rsi
ffffffff8020140c:	48 89 df             	mov    %rbx,%rdi
ffffffff8020140f:	e8 5a ff ff ff       	callq  ffffffff8020136e <PushU>
ffffffff80201414:	48 8b 75 58          	mov    0x58(%rbp),%rsi
ffffffff80201418:	48 89 df             	mov    %rbx,%rdi
ffffffff8020141b:	e8 4e ff ff ff       	callq  ffffffff8020136e <PushU>
ffffffff80201420:	48 8b 75 50          	mov    0x50(%rbp),%rsi
ffffffff80201424:	48 89 df             	mov    %rbx,%rdi
ffffffff80201427:	e8 42 ff ff ff       	callq  ffffffff8020136e <PushU>
ffffffff8020142c:	48 8b 75 48          	mov    0x48(%rbp),%rsi
ffffffff80201430:	48 89 df             	mov    %rbx,%rdi
ffffffff80201433:	e8 36 ff ff ff       	callq  ffffffff8020136e <PushU>
ffffffff80201438:	48 8b 75 40          	mov    0x40(%rbp),%rsi
ffffffff8020143c:	48 89 df             	mov    %rbx,%rdi
ffffffff8020143f:	e8 2a ff ff ff       	callq  ffffffff8020136e <PushU>
ffffffff80201444:	48 8b 75 38          	mov    0x38(%rbp),%rsi
ffffffff80201448:	48 89 df             	mov    %rbx,%rdi
ffffffff8020144b:	e8 1e ff ff ff       	callq  ffffffff8020136e <PushU>
ffffffff80201450:	48 8b 75 30          	mov    0x30(%rbp),%rsi
ffffffff80201454:	48 89 df             	mov    %rbx,%rdi
ffffffff80201457:	e8 12 ff ff ff       	callq  ffffffff8020136e <PushU>
ffffffff8020145c:	48 8b 75 28          	mov    0x28(%rbp),%rsi
ffffffff80201460:	48 89 df             	mov    %rbx,%rdi
ffffffff80201463:	e8 06 ff ff ff       	callq  ffffffff8020136e <PushU>
ffffffff80201468:	48 8b 75 20          	mov    0x20(%rbp),%rsi
ffffffff8020146c:	48 89 df             	mov    %rbx,%rdi
ffffffff8020146f:	e8 fa fe ff ff       	callq  ffffffff8020136e <PushU>
ffffffff80201474:	48 8b 75 18          	mov    0x18(%rbp),%rsi
ffffffff80201478:	48 89 df             	mov    %rbx,%rdi
ffffffff8020147b:	e8 ee fe ff ff       	callq  ffffffff8020136e <PushU>
ffffffff80201480:	48 8b 75 10          	mov    0x10(%rbp),%rsi
ffffffff80201484:	48 89 df             	mov    %rbx,%rdi
ffffffff80201487:	e8 e2 fe ff ff       	callq  ffffffff8020136e <PushU>
ffffffff8020148c:	48 8b 75 08          	mov    0x8(%rbp),%rsi
ffffffff80201490:	48 89 df             	mov    %rbx,%rdi
ffffffff80201493:	e8 d6 fe ff ff       	callq  ffffffff8020136e <PushU>
ffffffff80201498:	48 8b 75 00          	mov    0x0(%rbp),%rsi
ffffffff8020149c:	48 89 df             	mov    %rbx,%rdi
ffffffff8020149f:	e8 ca fe ff ff       	callq  ffffffff8020136e <PushU>
ffffffff802014a4:	5b                   	pop    %rbx
ffffffff802014a5:	5d                   	pop    %rbp
ffffffff802014a6:	41 5c                	pop    %r12
ffffffff802014a8:	c3                   	retq   

ffffffff802014a9 <fork>:
ffffffff802014a9:	41 54                	push   %r12
ffffffff802014ab:	55                   	push   %rbp
ffffffff802014ac:	53                   	push   %rbx
ffffffff802014ad:	49 89 fc             	mov    %rdi,%r12
ffffffff802014b0:	be 00 00 00 00       	mov    $0x0,%esi
ffffffff802014b5:	bf c8 04 00 00       	mov    $0x4c8,%edi
ffffffff802014ba:	e8 40 2a 00 00       	callq  ffffffff80203eff <sub_malloc>
ffffffff802014bf:	48 89 c3             	mov    %rax,%rbx
ffffffff802014c2:	48 8b 2d d7 7c 00 00 	mov    31959(%rip),%rbp        # ffffffff802091a0 <__FUNCTION__.1376+0x3b40>
ffffffff802014c9:	ba c8 04 00 00       	mov    $0x4c8,%edx
ffffffff802014ce:	48 8b 75 00          	mov    0x0(%rbp),%rsi
ffffffff802014d2:	48 89 c7             	mov    %rax,%rdi
ffffffff802014d5:	e8 d9 13 00 00       	callq  ffffffff802028b3 <memcpy>
ffffffff802014da:	b8 00 00 00 00       	mov    $0x0,%eax
ffffffff802014df:	e8 27 05 00 00       	callq  ffffffff80201a0b <alloc_pid>
ffffffff802014e4:	89 83 a4 00 00 00    	mov    %eax,0xa4(%rbx)
ffffffff802014ea:	48 98                	cltq   
ffffffff802014ec:	48 8b 15 75 7d 00 00 	mov    32117(%rip),%rdx        # ffffffff80209268 <__FUNCTION__.1376+0x3c08>
ffffffff802014f3:	48 89 1c c2          	mov    %rbx,(%rdx,%rax,8)
ffffffff802014f7:	be 01 00 00 00       	mov    $0x1,%esi
ffffffff802014fc:	bf 01 00 00 00       	mov    $0x1,%edi
ffffffff80201501:	e8 f9 29 00 00       	callq  ffffffff80203eff <sub_malloc>
ffffffff80201506:	48 05 f8 1f 00 00    	add    $0x1ff8,%rax
ffffffff8020150c:	48 89 43 10          	mov    %rax,0x10(%rbx)
ffffffff80201510:	48 89 43 28          	mov    %rax,0x28(%rbx)
ffffffff80201514:	48 8b 45 00          	mov    0x0(%rbp),%rax
ffffffff80201518:	48 89 43 60          	mov    %rax,0x60(%rbx)
ffffffff8020151c:	4c 89 e6             	mov    %r12,%rsi
ffffffff8020151f:	48 89 df             	mov    %rbx,%rdi
ffffffff80201522:	e8 58 fe ff ff       	callq  ffffffff8020137f <fork_int>
ffffffff80201527:	48 85 db             	test   %rbx,%rbx
ffffffff8020152a:	75 18                	jne    ffffffff80201544 <fork+0x9b>
ffffffff8020152c:	48 8d 15 73 6a 00 00 	lea    27251(%rip),%rdx        # ffffffff80207fa6 <__FUNCTION__.1376+0x2946>
ffffffff80201533:	be a4 00 00 00       	mov    $0xa4,%esi
ffffffff80201538:	48 8d 3d 21 3d 00 00 	lea    15649(%rip),%rdi        # ffffffff80205260 <__FUNCTION__.1562>
ffffffff8020153f:	e8 f0 17 00 00       	callq  ffffffff80202d34 <PANIC>
ffffffff80201544:	be 01 00 00 00       	mov    $0x1,%esi
ffffffff80201549:	bf 00 00 00 00       	mov    $0x0,%edi
ffffffff8020154e:	e8 ac 29 00 00       	callq  ffffffff80203eff <sub_malloc>
ffffffff80201553:	48 89 43 20          	mov    %rax,0x20(%rbx)
ffffffff80201557:	ba 00 00 00 80       	mov    $0x80000000,%edx
ffffffff8020155c:	48 01 c2             	add    %rax,%rdx
ffffffff8020155f:	48 89 53 18          	mov    %rdx,0x18(%rbx)
ffffffff80201563:	48 8b 2d 36 7c 00 00 	mov    31798(%rip),%rbp        # ffffffff802091a0 <__FUNCTION__.1376+0x3b40>
ffffffff8020156a:	48 8b 55 00          	mov    0x0(%rbp),%rdx
ffffffff8020156e:	48 8b 7a 20          	mov    0x20(%rdx),%rdi
ffffffff80201572:	48 89 c6             	mov    %rax,%rsi
ffffffff80201575:	e8 49 34 00 00       	callq  ffffffff802049c3 <clone_pgdir>
ffffffff8020157a:	48 8b 73 20          	mov    0x20(%rbx),%rsi
ffffffff8020157e:	48 8b 45 00          	mov    0x0(%rbp),%rax
ffffffff80201582:	48 8b 78 20          	mov    0x20(%rax),%rdi
ffffffff80201586:	ba 01 00 00 00       	mov    $0x1,%edx
ffffffff8020158b:	e8 67 34 00 00       	callq  ffffffff802049f7 <copy_page_table>
ffffffff80201590:	48 89 de             	mov    %rbx,%rsi
ffffffff80201593:	48 8b 7d 00          	mov    0x0(%rbp),%rdi
ffffffff80201597:	e8 a4 05 00 00       	callq  ffffffff80201b40 <add_to_joinQueue>
ffffffff8020159c:	48 89 df             	mov    %rbx,%rdi
ffffffff8020159f:	e8 f6 09 00 00       	callq  ffffffff80201f9a <alllist_kthread>
ffffffff802015a4:	48 89 df             	mov    %rbx,%rdi
ffffffff802015a7:	e8 a6 09 00 00       	callq  ffffffff80201f52 <runnable_kthread>
ffffffff802015ac:	b8 00 00 00 00       	mov    $0x0,%eax
ffffffff802015b1:	5b                   	pop    %rbx
ffffffff802015b2:	5d                   	pop    %rbp
ffffffff802015b3:	41 5c                	pop    %r12
ffffffff802015b5:	c3                   	retq   

ffffffff802015b6 <sleep>:
ffffffff802015b6:	48 8b 05 e3 7b 00 00 	mov    31715(%rip),%rax        # ffffffff802091a0 <__FUNCTION__.1376+0x3b40>
ffffffff802015bd:	48 8b 00             	mov    (%rax),%rax
ffffffff802015c0:	89 78 30             	mov    %edi,0x30(%rax)
ffffffff802015c3:	c3                   	retq   

ffffffff802015c4 <doread>:
ffffffff802015c4:	fb                   	sti    
ffffffff802015c5:	48 8b 05 9c 7b 00 00 	mov    31644(%rip),%rax        # ffffffff80209168 <__FUNCTION__.1376+0x3b08>
ffffffff802015cc:	8b 00                	mov    (%rax),%eax
ffffffff802015ce:	83 f8 01             	cmp    $0x1,%eax
ffffffff802015d1:	0f 84 93 00 00 00    	je     ffffffff8020166a <doread+0xa6>
ffffffff802015d7:	48 8b 05 9a 7a 00 00 	mov    31386(%rip),%rax        # ffffffff80209078 <__FUNCTION__.1376+0x3a18>
ffffffff802015de:	8b 00                	mov    (%rax),%eax
ffffffff802015e0:	85 c0                	test   %eax,%eax
ffffffff802015e2:	0f 84 88 00 00 00    	je     ffffffff80201670 <doread+0xac>
ffffffff802015e8:	55                   	push   %rbp
ffffffff802015e9:	53                   	push   %rbx
ffffffff802015ea:	48 83 ec 08          	sub    $0x8,%rsp
ffffffff802015ee:	48 89 fb             	mov    %rdi,%rbx
ffffffff802015f1:	48 8b 05 70 7b 00 00 	mov    31600(%rip),%rax        # ffffffff80209168 <__FUNCTION__.1376+0x3b08>
ffffffff802015f8:	c7 00 01 00 00 00    	movl   $0x1,(%rax)
ffffffff802015fe:	48 8b 05 73 7a 00 00 	mov    31347(%rip),%rax        # ffffffff80209078 <__FUNCTION__.1376+0x3a18>
ffffffff80201605:	c7 00 00 00 00 00    	movl   $0x0,(%rax)
ffffffff8020160b:	48 8b 15 86 7b 00 00 	mov    31622(%rip),%rdx        # ffffffff80209198 <__FUNCTION__.1376+0x3b38>
ffffffff80201612:	48 8b 05 af 7b 00 00 	mov    31663(%rip),%rax        # ffffffff802091c8 <__FUNCTION__.1376+0x3b68>
ffffffff80201619:	48 89 10             	mov    %rdx,(%rax)
ffffffff8020161c:	48 8b 15 45 7b 00 00 	mov    31557(%rip),%rdx        # ffffffff80209168 <__FUNCTION__.1376+0x3b08>
ffffffff80201623:	8b 02                	mov    (%rdx),%eax
ffffffff80201625:	83 f8 01             	cmp    $0x1,%eax
ffffffff80201628:	74 f9                	je     ffffffff80201623 <doread+0x5f>
ffffffff8020162a:	48 8b 2d 67 7b 00 00 	mov    31591(%rip),%rbp        # ffffffff80209198 <__FUNCTION__.1376+0x3b38>
ffffffff80201631:	48 89 ef             	mov    %rbp,%rdi
ffffffff80201634:	e8 df 16 00 00       	callq  ffffffff80202d18 <strlen>
ffffffff80201639:	89 c2                	mov    %eax,%edx
ffffffff8020163b:	48 89 ee             	mov    %rbp,%rsi
ffffffff8020163e:	48 89 df             	mov    %rbx,%rdi
ffffffff80201641:	e8 6d 12 00 00       	callq  ffffffff802028b3 <memcpy>
ffffffff80201646:	48 8b 05 1b 7b 00 00 	mov    31515(%rip),%rax        # ffffffff80209168 <__FUNCTION__.1376+0x3b08>
ffffffff8020164d:	c7 00 00 00 00 00    	movl   $0x0,(%rax)
ffffffff80201653:	48 8b 05 1e 7a 00 00 	mov    31262(%rip),%rax        # ffffffff80209078 <__FUNCTION__.1376+0x3a18>
ffffffff8020165a:	c7 00 01 00 00 00    	movl   $0x1,(%rax)
ffffffff80201660:	48 89 df             	mov    %rbx,%rdi
ffffffff80201663:	e8 b0 16 00 00       	callq  ffffffff80202d18 <strlen>
ffffffff80201668:	eb 0c                	jmp    ffffffff80201676 <doread+0xb2>
ffffffff8020166a:	b8 ff ff ff ff       	mov    $0xffffffff,%eax
ffffffff8020166f:	c3                   	retq   
ffffffff80201670:	b8 ff ff ff ff       	mov    $0xffffffff,%eax
ffffffff80201675:	c3                   	retq   
ffffffff80201676:	48 83 c4 08          	add    $0x8,%rsp
ffffffff8020167a:	5b                   	pop    %rbx
ffffffff8020167b:	5d                   	pop    %rbp
ffffffff8020167c:	c3                   	retq   

ffffffff8020167d <temp>:
ffffffff8020167d:	f3 c3                	repz retq 

ffffffff8020167f <wait>:
ffffffff8020167f:	48 83 ec 08          	sub    $0x8,%rsp
ffffffff80201683:	fb                   	sti    
ffffffff80201684:	b8 00 00 00 00       	mov    $0x0,%eax
ffffffff80201689:	e8 ef ff ff ff       	callq  ffffffff8020167d <temp>
ffffffff8020168e:	48 8b 05 0b 7b 00 00 	mov    31499(%rip),%rax        # ffffffff802091a0 <__FUNCTION__.1376+0x3b40>
ffffffff80201695:	48 8b 00             	mov    (%rax),%rax
ffffffff80201698:	48 83 b8 88 00 00 00 	cmpq   $0x0,0x88(%rax)
ffffffff8020169f:	00 
ffffffff802016a0:	75 e2                	jne    ffffffff80201684 <wait+0x5>
ffffffff802016a2:	48 83 c4 08          	add    $0x8,%rsp
ffffffff802016a6:	c3                   	retq   

ffffffff802016a7 <do_execve>:
ffffffff802016a7:	53                   	push   %rbx
ffffffff802016a8:	48 89 fb             	mov    %rdi,%rbx
ffffffff802016ab:	e8 72 eb ff ff       	callq  ffffffff80200222 <tarfs_read>
ffffffff802016b0:	48 85 c0             	test   %rax,%rax
ffffffff802016b3:	74 14                	je     ffffffff802016c9 <do_execve+0x22>
ffffffff802016b5:	48 89 df             	mov    %rbx,%rdi
ffffffff802016b8:	e8 1c f3 ff ff       	callq  ffffffff802009d9 <main_execve>
ffffffff802016bd:	e8 d7 05 00 00       	callq  ffffffff80201c99 <Schedule>
ffffffff802016c2:	b8 00 00 00 00       	mov    $0x0,%eax
ffffffff802016c7:	eb 05                	jmp    ffffffff802016ce <do_execve+0x27>
ffffffff802016c9:	b8 ff ff ff ff       	mov    $0xffffffff,%eax
ffffffff802016ce:	5b                   	pop    %rbx
ffffffff802016cf:	c3                   	retq   

ffffffff802016d0 <print_process>:
ffffffff802016d0:	41 54                	push   %r12
ffffffff802016d2:	55                   	push   %rbp
ffffffff802016d3:	53                   	push   %rbx
ffffffff802016d4:	48 8d 3d de 68 00 00 	lea    26846(%rip),%rdi        # ffffffff80207fb9 <__FUNCTION__.1376+0x2959>
ffffffff802016db:	b8 00 00 00 00       	mov    $0x0,%eax
ffffffff802016e0:	e8 f6 13 00 00       	callq  ffffffff80202adb <printf>
ffffffff802016e5:	48 8b 05 7c 7b 00 00 	mov    31612(%rip),%rax        # ffffffff80209268 <__FUNCTION__.1376+0x3c08>
ffffffff802016ec:	48 8b 40 10          	mov    0x10(%rax),%rax
ffffffff802016f0:	48 85 c0             	test   %rax,%rax
ffffffff802016f3:	74 5c                	je     ffffffff80201751 <print_process+0x81>
ffffffff802016f5:	bb 02 00 00 00       	mov    $0x2,%ebx
ffffffff802016fa:	4c 8d 25 b3 68 00 00 	lea    26803(%rip),%r12        # ffffffff80207fb4 <__FUNCTION__.1376+0x2954>
ffffffff80201701:	48 8b 50 08          	mov    0x8(%rax),%rdx
ffffffff80201705:	48 83 fa 01          	cmp    $0x1,%rdx
ffffffff80201709:	74 09                	je     ffffffff80201714 <print_process+0x44>
ffffffff8020170b:	48 85 d2             	test   %rdx,%rdx
ffffffff8020170e:	49 0f 44 ec          	cmove  %r12,%rbp
ffffffff80201712:	eb 07                	jmp    ffffffff8020171b <print_process+0x4b>
ffffffff80201714:	48 8d 2d 92 68 00 00 	lea    26770(%rip),%rbp        # ffffffff80207fad <__FUNCTION__.1376+0x294d>
ffffffff8020171b:	8b 90 a4 00 00 00    	mov    0xa4(%rax),%edx
ffffffff80201721:	48 8b b0 98 00 00 00 	mov    0x98(%rax),%rsi
ffffffff80201728:	48 89 e9             	mov    %rbp,%rcx
ffffffff8020172b:	48 8d 3d a0 68 00 00 	lea    26784(%rip),%rdi        # ffffffff80207fd2 <__FUNCTION__.1376+0x2972>
ffffffff80201732:	b8 00 00 00 00       	mov    $0x0,%eax
ffffffff80201737:	e8 9f 13 00 00       	callq  ffffffff80202adb <printf>
ffffffff8020173c:	ff c3                	inc    %ebx
ffffffff8020173e:	0f b7 d3             	movzwl %bx,%edx
ffffffff80201741:	48 8b 05 20 7b 00 00 	mov    31520(%rip),%rax        # ffffffff80209268 <__FUNCTION__.1376+0x3c08>
ffffffff80201748:	48 8b 04 d0          	mov    (%rax,%rdx,8),%rax
ffffffff8020174c:	48 85 c0             	test   %rax,%rax
ffffffff8020174f:	75 b0                	jne    ffffffff80201701 <print_process+0x31>
ffffffff80201751:	5b                   	pop    %rbx
ffffffff80201752:	5d                   	pop    %rbp
ffffffff80201753:	41 5c                	pop    %r12
ffffffff80201755:	c3                   	retq   

ffffffff80201756 <do_cls>:
ffffffff80201756:	f3 c3                	repz retq 

ffffffff80201758 <kybrd_ctrl_read_status>:
ffffffff80201758:	e4 64                	in     $0x64,%al
ffffffff8020175a:	c3                   	retq   

ffffffff8020175b <kybrd_ctrl_send_cmd>:
ffffffff8020175b:	53                   	push   %rbx
ffffffff8020175c:	89 fb                	mov    %edi,%ebx
ffffffff8020175e:	b8 00 00 00 00       	mov    $0x0,%eax
ffffffff80201763:	e8 f0 ff ff ff       	callq  ffffffff80201758 <kybrd_ctrl_read_status>
ffffffff80201768:	a8 02                	test   $0x2,%al
ffffffff8020176a:	75 f2                	jne    ffffffff8020175e <kybrd_ctrl_send_cmd+0x3>
ffffffff8020176c:	89 d8                	mov    %ebx,%eax
ffffffff8020176e:	e6 64                	out    %al,$0x64
ffffffff80201770:	5b                   	pop    %rbx
ffffffff80201771:	c3                   	retq   

ffffffff80201772 <keybrd_enc_read_buf>:
ffffffff80201772:	e4 60                	in     $0x60,%al
ffffffff80201774:	c3                   	retq   

ffffffff80201775 <kybrd_enc_send_cmd>:
ffffffff80201775:	53                   	push   %rbx
ffffffff80201776:	89 fb                	mov    %edi,%ebx
ffffffff80201778:	b8 00 00 00 00       	mov    $0x0,%eax
ffffffff8020177d:	e8 d6 ff ff ff       	callq  ffffffff80201758 <kybrd_ctrl_read_status>
ffffffff80201782:	a8 02                	test   $0x2,%al
ffffffff80201784:	75 f2                	jne    ffffffff80201778 <kybrd_enc_send_cmd+0x3>
ffffffff80201786:	89 d8                	mov    %ebx,%eax
ffffffff80201788:	e6 60                	out    %al,$0x60
ffffffff8020178a:	5b                   	pop    %rbx
ffffffff8020178b:	c3                   	retq   

ffffffff8020178c <keycode_to_ascii>:
ffffffff8020178c:	40 0f b6 c7          	movzbl %dil,%eax
ffffffff80201790:	48 8b 15 b1 79 00 00 	mov    31153(%rip),%rdx        # ffffffff80209148 <__FUNCTION__.1376+0x3ae8>
ffffffff80201797:	83 3a 00             	cmpl   $0x0,(%rdx)
ffffffff8020179a:	75 10                	jne    ffffffff802017ac <keycode_to_ascii+0x20>
ffffffff8020179c:	48 8b 15 ad 79 00 00 	mov    31149(%rip),%rdx        # ffffffff80209150 <__FUNCTION__.1376+0x3af0>
ffffffff802017a3:	83 3a 00             	cmpl   $0x0,(%rdx)
ffffffff802017a6:	0f 84 cd 00 00 00    	je     ffffffff80201879 <keycode_to_ascii+0xed>
ffffffff802017ac:	40 0f b6 d7          	movzbl %dil,%edx
ffffffff802017b0:	8d 4a 9f             	lea    0xffffffffffffff9f(%rdx),%ecx
ffffffff802017b3:	83 f9 19             	cmp    $0x19,%ecx
ffffffff802017b6:	77 04                	ja     ffffffff802017bc <keycode_to_ascii+0x30>
ffffffff802017b8:	83 e8 20             	sub    $0x20,%eax
ffffffff802017bb:	c3                   	retq   
ffffffff802017bc:	83 ea 30             	sub    $0x30,%edx
ffffffff802017bf:	83 fa 09             	cmp    $0x9,%edx
ffffffff802017c2:	77 57                	ja     ffffffff8020181b <keycode_to_ascii+0x8f>
ffffffff802017c4:	83 ef 30             	sub    $0x30,%edi
ffffffff802017c7:	40 80 ff 09          	cmp    $0x9,%dil
ffffffff802017cb:	0f 87 a8 00 00 00    	ja     ffffffff80201879 <keycode_to_ascii+0xed>
ffffffff802017d1:	40 0f b6 ff          	movzbl %dil,%edi
ffffffff802017d5:	48 8d 05 04 3b 00 00 	lea    15108(%rip),%rax        # ffffffff802052e0 <__FUNCTION__.1534+0x30>
ffffffff802017dc:	48 63 14 b8          	movslq (%rax,%rdi,4),%rdx
ffffffff802017e0:	48 01 d0             	add    %rdx,%rax
ffffffff802017e3:	ff e0                	jmpq   *%rax
ffffffff802017e5:	b8 21 00 00 00       	mov    $0x21,%eax
ffffffff802017ea:	c3                   	retq   
ffffffff802017eb:	b8 40 00 00 00       	mov    $0x40,%eax
ffffffff802017f0:	c3                   	retq   
ffffffff802017f1:	b8 23 00 00 00       	mov    $0x23,%eax
ffffffff802017f6:	c3                   	retq   
ffffffff802017f7:	b8 24 00 00 00       	mov    $0x24,%eax
ffffffff802017fc:	c3                   	retq   
ffffffff802017fd:	b8 25 00 00 00       	mov    $0x25,%eax
ffffffff80201802:	c3                   	retq   
ffffffff80201803:	b8 5e 00 00 00       	mov    $0x5e,%eax
ffffffff80201808:	c3                   	retq   
ffffffff80201809:	b8 26 00 00 00       	mov    $0x26,%eax
ffffffff8020180e:	c3                   	retq   
ffffffff8020180f:	b8 2a 00 00 00       	mov    $0x2a,%eax
ffffffff80201814:	c3                   	retq   
ffffffff80201815:	b8 28 00 00 00       	mov    $0x28,%eax
ffffffff8020181a:	c3                   	retq   
ffffffff8020181b:	83 ef 27             	sub    $0x27,%edi
ffffffff8020181e:	40 80 ff 36          	cmp    $0x36,%dil
ffffffff80201822:	77 55                	ja     ffffffff80201879 <keycode_to_ascii+0xed>
ffffffff80201824:	40 0f b6 ff          	movzbl %dil,%edi
ffffffff80201828:	48 8d 15 d9 3a 00 00 	lea    15065(%rip),%rdx        # ffffffff80205308 <__FUNCTION__.1534+0x58>
ffffffff8020182f:	48 63 0c ba          	movslq (%rdx,%rdi,4),%rcx
ffffffff80201833:	48 01 ca             	add    %rcx,%rdx
ffffffff80201836:	ff e2                	jmpq   *%rdx
ffffffff80201838:	b8 3e 00 00 00       	mov    $0x3e,%eax
ffffffff8020183d:	c3                   	retq   
ffffffff8020183e:	b8 3f 00 00 00       	mov    $0x3f,%eax
ffffffff80201843:	c3                   	retq   
ffffffff80201844:	b8 3a 00 00 00       	mov    $0x3a,%eax
ffffffff80201849:	c3                   	retq   
ffffffff8020184a:	b8 22 00 00 00       	mov    $0x22,%eax
ffffffff8020184f:	c3                   	retq   
ffffffff80201850:	b8 7b 00 00 00       	mov    $0x7b,%eax
ffffffff80201855:	c3                   	retq   
ffffffff80201856:	b8 7d 00 00 00       	mov    $0x7d,%eax
ffffffff8020185b:	c3                   	retq   
ffffffff8020185c:	b8 5f 00 00 00       	mov    $0x5f,%eax
ffffffff80201861:	c3                   	retq   
ffffffff80201862:	b8 3d 00 00 00       	mov    $0x3d,%eax
ffffffff80201867:	c3                   	retq   
ffffffff80201868:	b8 7c 00 00 00       	mov    $0x7c,%eax
ffffffff8020186d:	c3                   	retq   
ffffffff8020186e:	b8 29 00 00 00       	mov    $0x29,%eax
ffffffff80201873:	c3                   	retq   
ffffffff80201874:	b8 3c 00 00 00       	mov    $0x3c,%eax
ffffffff80201879:	f3 c3                	repz retq 

ffffffff8020187b <keyboard_handler>:
ffffffff8020187b:	53                   	push   %rbx
ffffffff8020187c:	b8 00 00 00 00       	mov    $0x0,%eax
ffffffff80201881:	e8 d2 fe ff ff       	callq  ffffffff80201758 <kybrd_ctrl_read_status>
ffffffff80201886:	a8 01                	test   $0x1,%al
ffffffff80201888:	0f 84 1e 01 00 00    	je     ffffffff802019ac <keyboard_handler+0x131>
ffffffff8020188e:	b8 00 00 00 00       	mov    $0x0,%eax
ffffffff80201893:	e8 da fe ff ff       	callq  ffffffff80201772 <keybrd_enc_read_buf>
ffffffff80201898:	8d 50 20             	lea    0x20(%rax),%edx
ffffffff8020189b:	80 fa 01             	cmp    $0x1,%dl
ffffffff8020189e:	0f 86 08 01 00 00    	jbe    ffffffff802019ac <keyboard_handler+0x131>
ffffffff802018a4:	84 c0                	test   %al,%al
ffffffff802018a6:	79 66                	jns    ffffffff8020190e <keyboard_handler+0x93>
ffffffff802018a8:	83 c0 80             	add    $0xffffffffffffff80,%eax
ffffffff802018ab:	0f b6 c0             	movzbl %al,%eax
ffffffff802018ae:	48 8d 15 6b 3b 00 00 	lea    15211(%rip),%rdx        # ffffffff80205420 <scan_code>
ffffffff802018b5:	8b 04 82             	mov    (%rdx,%rax,4),%eax
ffffffff802018b8:	2d 02 40 00 00       	sub    $0x4002,%eax
ffffffff802018bd:	83 f8 06             	cmp    $0x6,%eax
ffffffff802018c0:	0f 87 e6 00 00 00    	ja     ffffffff802019ac <keyboard_handler+0x131>
ffffffff802018c6:	89 c0                	mov    %eax,%eax
ffffffff802018c8:	48 8d 15 15 3b 00 00 	lea    15125(%rip),%rdx        # ffffffff802053e4 <__FUNCTION__.1534+0x134>
ffffffff802018cf:	48 63 04 82          	movslq (%rdx,%rax,4),%rax
ffffffff802018d3:	48 01 c2             	add    %rax,%rdx
ffffffff802018d6:	ff e2                	jmpq   *%rdx
ffffffff802018d8:	48 8b 05 61 79 00 00 	mov    31073(%rip),%rax        # ffffffff80209240 <__FUNCTION__.1376+0x3be0>
ffffffff802018df:	c7 00 00 00 00 00    	movl   $0x0,(%rax)
ffffffff802018e5:	e9 c2 00 00 00       	jmpq   ffffffff802019ac <keyboard_handler+0x131>
ffffffff802018ea:	48 8b 05 57 78 00 00 	mov    30807(%rip),%rax        # ffffffff80209148 <__FUNCTION__.1376+0x3ae8>
ffffffff802018f1:	c7 00 00 00 00 00    	movl   $0x0,(%rax)
ffffffff802018f7:	e9 b0 00 00 00       	jmpq   ffffffff802019ac <keyboard_handler+0x131>
ffffffff802018fc:	48 8b 05 2d 77 00 00 	mov    30509(%rip),%rax        # ffffffff80209030 <__FUNCTION__.1376+0x39d0>
ffffffff80201903:	c7 00 00 00 00 00    	movl   $0x0,(%rax)
ffffffff80201909:	e9 9e 00 00 00       	jmpq   ffffffff802019ac <keyboard_handler+0x131>
ffffffff8020190e:	0f b6 c0             	movzbl %al,%eax
ffffffff80201911:	48 8d 15 08 3b 00 00 	lea    15112(%rip),%rdx        # ffffffff80205420 <scan_code>
ffffffff80201918:	8b 3c 82             	mov    (%rdx,%rax,4),%edi
ffffffff8020191b:	8d 87 ff bf ff ff    	lea    0xffffffffffffbfff(%rdi),%eax
ffffffff80201921:	83 f8 07             	cmp    $0x7,%eax
ffffffff80201924:	77 53                	ja     ffffffff80201979 <keyboard_handler+0xfe>
ffffffff80201926:	89 c0                	mov    %eax,%eax
ffffffff80201928:	48 8d 15 d1 3a 00 00 	lea    15057(%rip),%rdx        # ffffffff80205400 <__FUNCTION__.1534+0x150>
ffffffff8020192f:	48 63 04 82          	movslq (%rdx,%rax,4),%rax
ffffffff80201933:	48 01 c2             	add    %rax,%rdx
ffffffff80201936:	ff e2                	jmpq   *%rdx
ffffffff80201938:	48 8b 05 01 79 00 00 	mov    30977(%rip),%rax        # ffffffff80209240 <__FUNCTION__.1376+0x3be0>
ffffffff8020193f:	c7 00 01 00 00 00    	movl   $0x1,(%rax)
ffffffff80201945:	eb 65                	jmp    ffffffff802019ac <keyboard_handler+0x131>
ffffffff80201947:	48 8b 05 fa 77 00 00 	mov    30714(%rip),%rax        # ffffffff80209148 <__FUNCTION__.1376+0x3ae8>
ffffffff8020194e:	c7 00 01 00 00 00    	movl   $0x1,(%rax)
ffffffff80201954:	eb 56                	jmp    ffffffff802019ac <keyboard_handler+0x131>
ffffffff80201956:	48 8b 05 d3 76 00 00 	mov    30419(%rip),%rax        # ffffffff80209030 <__FUNCTION__.1376+0x39d0>
ffffffff8020195d:	c7 00 01 00 00 00    	movl   $0x1,(%rax)
ffffffff80201963:	eb 47                	jmp    ffffffff802019ac <keyboard_handler+0x131>
ffffffff80201965:	48 8b 05 e4 77 00 00 	mov    30692(%rip),%rax        # ffffffff80209150 <__FUNCTION__.1376+0x3af0>
ffffffff8020196c:	83 38 00             	cmpl   $0x0,(%rax)
ffffffff8020196f:	0f 94 c2             	sete   %dl
ffffffff80201972:	0f b6 d2             	movzbl %dl,%edx
ffffffff80201975:	89 10                	mov    %edx,(%rax)
ffffffff80201977:	eb 33                	jmp    ffffffff802019ac <keyboard_handler+0x131>
ffffffff80201979:	40 0f b6 df          	movzbl %dil,%ebx
ffffffff8020197d:	89 df                	mov    %ebx,%edi
ffffffff8020197f:	e8 08 fe ff ff       	callq  ffffffff8020178c <keycode_to_ascii>
ffffffff80201984:	0f be f0             	movsbl %al,%esi
ffffffff80201987:	bf 1f 00 00 00       	mov    $0x1f,%edi
ffffffff8020198c:	e8 47 10 00 00       	callq  ffffffff802029d8 <write_char>
ffffffff80201991:	48 8b 05 d0 77 00 00 	mov    30672(%rip),%rax        # ffffffff80209168 <__FUNCTION__.1376+0x3b08>
ffffffff80201998:	83 38 00             	cmpl   $0x0,(%rax)
ffffffff8020199b:	74 0f                	je     ffffffff802019ac <keyboard_handler+0x131>
ffffffff8020199d:	89 df                	mov    %ebx,%edi
ffffffff8020199f:	e8 e8 fd ff ff       	callq  ffffffff8020178c <keycode_to_ascii>
ffffffff802019a4:	0f be f8             	movsbl %al,%edi
ffffffff802019a7:	e8 ab 0e 00 00       	callq  ffffffff80202857 <write_io_buff>
ffffffff802019ac:	5b                   	pop    %rbx
ffffffff802019ad:	c3                   	retq   

ffffffff802019ae <keyboard_install>:
ffffffff802019ae:	48 83 ec 08          	sub    $0x8,%rsp
ffffffff802019b2:	48 8b 35 3f 77 00 00 	mov    30527(%rip),%rsi        # ffffffff802090f8 <__FUNCTION__.1376+0x3a98>
ffffffff802019b9:	bf 01 00 00 00       	mov    $0x1,%edi
ffffffff802019be:	e8 45 f4 ff ff       	callq  ffffffff80200e08 <irq_install_handler>
ffffffff802019c3:	48 83 c4 08          	add    $0x8,%rsp
ffffffff802019c7:	c3                   	retq   
	...

ffffffff802019d0 <add_to_ptable>:
ffffffff802019d0:	53                   	push   %rbx
ffffffff802019d1:	48 89 fb             	mov    %rdi,%rbx
ffffffff802019d4:	48 8d 3d 0c 66 00 00 	lea    26124(%rip),%rdi        # ffffffff80207fe7 <__FUNCTION__.1376+0x2987>
ffffffff802019db:	b8 00 00 00 00       	mov    $0x0,%eax
ffffffff802019e0:	e8 f6 10 00 00       	callq  ffffffff80202adb <printf>
ffffffff802019e5:	48 63 93 a4 00 00 00 	movslq 0xa4(%rbx),%rdx
ffffffff802019ec:	48 8b 05 75 78 00 00 	mov    30837(%rip),%rax        # ffffffff80209268 <__FUNCTION__.1376+0x3c08>
ffffffff802019f3:	48 89 1c d0          	mov    %rbx,(%rax,%rdx,8)
ffffffff802019f7:	5b                   	pop    %rbx
ffffffff802019f8:	c3                   	retq   

ffffffff802019f9 <disable_interrupts>:
ffffffff802019f9:	fa                   	cli    
ffffffff802019fa:	c3                   	retq   

ffffffff802019fb <enable_interrupts>:
ffffffff802019fb:	fb                   	sti    
ffffffff802019fc:	c3                   	retq   

ffffffff802019fd <Launch_Thread>:
ffffffff802019fd:	48 83 ec 08          	sub    $0x8,%rsp
ffffffff80201a01:	e8 f5 ff ff ff       	callq  ffffffff802019fb <enable_interrupts>
ffffffff80201a06:	48 83 c4 08          	add    $0x8,%rsp
ffffffff80201a0a:	c3                   	retq   

ffffffff80201a0b <alloc_pid>:
ffffffff80201a0b:	48 8b 15 4e 76 00 00 	mov    30286(%rip),%rdx        # ffffffff80209060 <__FUNCTION__.1376+0x3a00>
ffffffff80201a12:	8b 02                	mov    (%rdx),%eax
ffffffff80201a14:	ff c0                	inc    %eax
ffffffff80201a16:	89 02                	mov    %eax,(%rdx)
ffffffff80201a18:	c3                   	retq   

ffffffff80201a19 <free_pid>:
ffffffff80201a19:	48 8b 05 40 76 00 00 	mov    30272(%rip),%rax        # ffffffff80209060 <__FUNCTION__.1376+0x3a00>
ffffffff80201a20:	ff 08                	decl   (%rax)
ffffffff80201a22:	c3                   	retq   

ffffffff80201a23 <append_run_queue>:
ffffffff80201a23:	48 c7 46 40 00 00 00 	movq   $0x0,0x40(%rsi)
ffffffff80201a2a:	00 
ffffffff80201a2b:	48 8b 47 08          	mov    0x8(%rdi),%rax
ffffffff80201a2f:	48 85 c0             	test   %rax,%rax
ffffffff80201a32:	75 10                	jne    ffffffff80201a44 <append_run_queue+0x21>
ffffffff80201a34:	48 89 77 08          	mov    %rsi,0x8(%rdi)
ffffffff80201a38:	48 89 37             	mov    %rsi,(%rdi)
ffffffff80201a3b:	48 c7 46 38 00 00 00 	movq   $0x0,0x38(%rsi)
ffffffff80201a42:	00 
ffffffff80201a43:	c3                   	retq   
ffffffff80201a44:	48 89 70 40          	mov    %rsi,0x40(%rax)
ffffffff80201a48:	48 8b 47 08          	mov    0x8(%rdi),%rax
ffffffff80201a4c:	48 89 46 38          	mov    %rax,0x38(%rsi)
ffffffff80201a50:	48 89 77 08          	mov    %rsi,0x8(%rdi)
ffffffff80201a54:	c3                   	retq   

ffffffff80201a55 <insert_run_queue>:
ffffffff80201a55:	48 c7 46 38 00 00 00 	movq   $0x0,0x38(%rsi)
ffffffff80201a5c:	00 
ffffffff80201a5d:	48 8b 07             	mov    (%rdi),%rax
ffffffff80201a60:	48 85 c0             	test   %rax,%rax
ffffffff80201a63:	75 10                	jne    ffffffff80201a75 <insert_run_queue+0x20>
ffffffff80201a65:	48 89 77 08          	mov    %rsi,0x8(%rdi)
ffffffff80201a69:	48 89 37             	mov    %rsi,(%rdi)
ffffffff80201a6c:	48 c7 46 40 00 00 00 	movq   $0x0,0x40(%rsi)
ffffffff80201a73:	00 
ffffffff80201a74:	c3                   	retq   
ffffffff80201a75:	48 89 70 38          	mov    %rsi,0x38(%rax)
ffffffff80201a79:	48 8b 07             	mov    (%rdi),%rax
ffffffff80201a7c:	48 89 46 40          	mov    %rax,0x40(%rsi)
ffffffff80201a80:	48 89 37             	mov    %rsi,(%rdi)
ffffffff80201a83:	c3                   	retq   

ffffffff80201a84 <append_global_list_queue>:
ffffffff80201a84:	48 c7 86 c0 00 00 00 	movq   $0x0,0xc0(%rsi)
ffffffff80201a8b:	00 00 00 00 
ffffffff80201a8f:	48 8b 47 08          	mov    0x8(%rdi),%rax
ffffffff80201a93:	48 85 c0             	test   %rax,%rax
ffffffff80201a96:	75 13                	jne    ffffffff80201aab <append_global_list_queue+0x27>
ffffffff80201a98:	48 89 77 08          	mov    %rsi,0x8(%rdi)
ffffffff80201a9c:	48 89 37             	mov    %rsi,(%rdi)
ffffffff80201a9f:	48 c7 86 b8 00 00 00 	movq   $0x0,0xb8(%rsi)
ffffffff80201aa6:	00 00 00 00 
ffffffff80201aaa:	c3                   	retq   
ffffffff80201aab:	48 89 b0 c0 00 00 00 	mov    %rsi,0xc0(%rax)
ffffffff80201ab2:	48 8b 47 08          	mov    0x8(%rdi),%rax
ffffffff80201ab6:	48 89 86 b8 00 00 00 	mov    %rax,0xb8(%rsi)
ffffffff80201abd:	48 89 77 08          	mov    %rsi,0x8(%rdi)
ffffffff80201ac1:	c3                   	retq   

ffffffff80201ac2 <insert_global_list_queue>:
ffffffff80201ac2:	48 c7 86 b8 00 00 00 	movq   $0x0,0xb8(%rsi)
ffffffff80201ac9:	00 00 00 00 
ffffffff80201acd:	48 8b 07             	mov    (%rdi),%rax
ffffffff80201ad0:	48 85 c0             	test   %rax,%rax
ffffffff80201ad3:	75 13                	jne    ffffffff80201ae8 <insert_global_list_queue+0x26>
ffffffff80201ad5:	48 89 77 08          	mov    %rsi,0x8(%rdi)
ffffffff80201ad9:	48 89 37             	mov    %rsi,(%rdi)
ffffffff80201adc:	48 c7 86 c0 00 00 00 	movq   $0x0,0xc0(%rsi)
ffffffff80201ae3:	00 00 00 00 
ffffffff80201ae7:	c3                   	retq   
ffffffff80201ae8:	48 89 b0 b8 00 00 00 	mov    %rsi,0xb8(%rax)
ffffffff80201aef:	48 8b 07             	mov    (%rdi),%rax
ffffffff80201af2:	48 89 86 c0 00 00 00 	mov    %rax,0xc0(%rsi)
ffffffff80201af9:	48 89 37             	mov    %rsi,(%rdi)
ffffffff80201afc:	c3                   	retq   

ffffffff80201afd <append_join_queue>:
ffffffff80201afd:	55                   	push   %rbp
ffffffff80201afe:	53                   	push   %rbx
ffffffff80201aff:	48 83 ec 08          	sub    $0x8,%rsp
ffffffff80201b03:	48 89 fd             	mov    %rdi,%rbp
ffffffff80201b06:	48 8d 9e 80 00 00 00 	lea    0x80(%rsi),%rbx
ffffffff80201b0d:	be 00 00 00 00       	mov    $0x0,%esi
ffffffff80201b12:	bf 10 00 00 00       	mov    $0x10,%edi
ffffffff80201b17:	e8 e3 23 00 00       	callq  ffffffff80203eff <sub_malloc>
ffffffff80201b1c:	48 89 28             	mov    %rbp,(%rax)
ffffffff80201b1f:	48 c7 40 08 00 00 00 	movq   $0x0,0x8(%rax)
ffffffff80201b26:	00 
ffffffff80201b27:	48 8b 53 08          	mov    0x8(%rbx),%rdx
ffffffff80201b2b:	48 85 d2             	test   %rdx,%rdx
ffffffff80201b2e:	74 05                	je     ffffffff80201b35 <append_join_queue+0x38>
ffffffff80201b30:	48 89 d3             	mov    %rdx,%rbx
ffffffff80201b33:	eb f2                	jmp    ffffffff80201b27 <append_join_queue+0x2a>
ffffffff80201b35:	48 89 43 08          	mov    %rax,0x8(%rbx)
ffffffff80201b39:	48 83 c4 08          	add    $0x8,%rsp
ffffffff80201b3d:	5b                   	pop    %rbx
ffffffff80201b3e:	5d                   	pop    %rbp
ffffffff80201b3f:	c3                   	retq   

ffffffff80201b40 <add_to_joinQueue>:
ffffffff80201b40:	48 83 ec 08          	sub    $0x8,%rsp
ffffffff80201b44:	48 89 f8             	mov    %rdi,%rax
ffffffff80201b47:	48 89 f7             	mov    %rsi,%rdi
ffffffff80201b4a:	48 89 c6             	mov    %rax,%rsi
ffffffff80201b4d:	e8 ab ff ff ff       	callq  ffffffff80201afd <append_join_queue>
ffffffff80201b52:	48 83 c4 08          	add    $0x8,%rsp
ffffffff80201b56:	c3                   	retq   

ffffffff80201b57 <remove_alllist_kthread>:
ffffffff80201b57:	48 8b 86 b8 00 00 00 	mov    0xb8(%rsi),%rax
ffffffff80201b5e:	48 85 c0             	test   %rax,%rax
ffffffff80201b61:	74 10                	je     ffffffff80201b73 <remove_alllist_kthread+0x1c>
ffffffff80201b63:	48 8b 96 c0 00 00 00 	mov    0xc0(%rsi),%rdx
ffffffff80201b6a:	48 89 90 c0 00 00 00 	mov    %rdx,0xc0(%rax)
ffffffff80201b71:	eb 0a                	jmp    ffffffff80201b7d <remove_alllist_kthread+0x26>
ffffffff80201b73:	48 8b 86 c0 00 00 00 	mov    0xc0(%rsi),%rax
ffffffff80201b7a:	48 89 07             	mov    %rax,(%rdi)
ffffffff80201b7d:	48 8b 86 c0 00 00 00 	mov    0xc0(%rsi),%rax
ffffffff80201b84:	48 85 c0             	test   %rax,%rax
ffffffff80201b87:	74 0f                	je     ffffffff80201b98 <remove_alllist_kthread+0x41>
ffffffff80201b89:	48 8b 96 b8 00 00 00 	mov    0xb8(%rsi),%rdx
ffffffff80201b90:	48 89 90 b8 00 00 00 	mov    %rdx,0xb8(%rax)
ffffffff80201b97:	c3                   	retq   
ffffffff80201b98:	48 8b 86 b8 00 00 00 	mov    0xb8(%rsi),%rax
ffffffff80201b9f:	48 89 47 08          	mov    %rax,0x8(%rdi)
ffffffff80201ba3:	c3                   	retq   

ffffffff80201ba4 <remove_runnable_kthread>:
ffffffff80201ba4:	48 8b 46 38          	mov    0x38(%rsi),%rax
ffffffff80201ba8:	48 85 c0             	test   %rax,%rax
ffffffff80201bab:	74 0a                	je     ffffffff80201bb7 <remove_runnable_kthread+0x13>
ffffffff80201bad:	48 8b 56 40          	mov    0x40(%rsi),%rdx
ffffffff80201bb1:	48 89 50 40          	mov    %rdx,0x40(%rax)
ffffffff80201bb5:	eb 07                	jmp    ffffffff80201bbe <remove_runnable_kthread+0x1a>
ffffffff80201bb7:	48 8b 46 40          	mov    0x40(%rsi),%rax
ffffffff80201bbb:	48 89 07             	mov    %rax,(%rdi)
ffffffff80201bbe:	48 8b 46 40          	mov    0x40(%rsi),%rax
ffffffff80201bc2:	48 85 c0             	test   %rax,%rax
ffffffff80201bc5:	74 09                	je     ffffffff80201bd0 <remove_runnable_kthread+0x2c>
ffffffff80201bc7:	48 8b 56 38          	mov    0x38(%rsi),%rdx
ffffffff80201bcb:	48 89 50 38          	mov    %rdx,0x38(%rax)
ffffffff80201bcf:	c3                   	retq   
ffffffff80201bd0:	48 8b 46 38          	mov    0x38(%rsi),%rax
ffffffff80201bd4:	48 89 47 08          	mov    %rax,0x8(%rdi)
ffffffff80201bd8:	c3                   	retq   

ffffffff80201bd9 <remove_child>:
ffffffff80201bd9:	48 83 ec 08          	sub    $0x8,%rsp
ffffffff80201bdd:	48 8d 87 80 00 00 00 	lea    0x80(%rdi),%rax
ffffffff80201be4:	eb 08                	jmp    ffffffff80201bee <remove_child+0x15>
ffffffff80201be6:	48 39 37             	cmp    %rsi,(%rdi)
ffffffff80201be9:	74 0c                	je     ffffffff80201bf7 <remove_child+0x1e>
ffffffff80201beb:	48 89 f8             	mov    %rdi,%rax
ffffffff80201bee:	48 8b 78 08          	mov    0x8(%rax),%rdi
ffffffff80201bf2:	48 85 ff             	test   %rdi,%rdi
ffffffff80201bf5:	75 ef                	jne    ffffffff80201be6 <remove_child+0xd>
ffffffff80201bf7:	48 8b 57 08          	mov    0x8(%rdi),%rdx
ffffffff80201bfb:	48 89 50 08          	mov    %rdx,0x8(%rax)
ffffffff80201bff:	e8 c0 22 00 00       	callq  ffffffff80203ec4 <sub_free>
ffffffff80201c04:	48 83 c4 08          	add    $0x8,%rsp
ffffffff80201c08:	c3                   	retq   

ffffffff80201c09 <thread_cleanup>:
ffffffff80201c09:	53                   	push   %rbx
ffffffff80201c0a:	48 89 fb             	mov    %rdi,%rbx
ffffffff80201c0d:	48 89 fe             	mov    %rdi,%rsi
ffffffff80201c10:	48 8b 3d 49 75 00 00 	mov    30025(%rip),%rdi        # ffffffff80209160 <__FUNCTION__.1376+0x3b00>
ffffffff80201c17:	e8 88 ff ff ff       	callq  ffffffff80201ba4 <remove_runnable_kthread>
ffffffff80201c1c:	48 89 de             	mov    %rbx,%rsi
ffffffff80201c1f:	48 8b 3d c2 75 00 00 	mov    30146(%rip),%rdi        # ffffffff802091e8 <__FUNCTION__.1376+0x3b88>
ffffffff80201c26:	e8 2c ff ff ff       	callq  ffffffff80201b57 <remove_alllist_kthread>
ffffffff80201c2b:	48 8b 7b 60          	mov    0x60(%rbx),%rdi
ffffffff80201c2f:	48 85 ff             	test   %rdi,%rdi
ffffffff80201c32:	74 08                	je     ffffffff80201c3c <thread_cleanup+0x33>
ffffffff80201c34:	48 89 de             	mov    %rbx,%rsi
ffffffff80201c37:	e8 9d ff ff ff       	callq  ffffffff80201bd9 <remove_child>
ffffffff80201c3c:	5b                   	pop    %rbx
ffffffff80201c3d:	c3                   	retq   

ffffffff80201c3e <next_runnable_kthread>:
ffffffff80201c3e:	53                   	push   %rbx
ffffffff80201c3f:	48 8b 05 1a 75 00 00 	mov    29978(%rip),%rax        # ffffffff80209160 <__FUNCTION__.1376+0x3b00>
ffffffff80201c46:	48 8b 18             	mov    (%rax),%rbx
ffffffff80201c49:	48 85 db             	test   %rbx,%rbx
ffffffff80201c4c:	74 1f                	je     ffffffff80201c6d <next_runnable_kthread+0x2f>
ffffffff80201c4e:	83 7b 30 00          	cmpl   $0x0,0x30(%rbx)
ffffffff80201c52:	75 09                	jne    ffffffff80201c5d <next_runnable_kthread+0x1f>
ffffffff80201c54:	83 bb 90 00 00 00 00 	cmpl   $0x0,0x90(%rbx)
ffffffff80201c5b:	75 0b                	jne    ffffffff80201c68 <next_runnable_kthread+0x2a>
ffffffff80201c5d:	48 8b 5b 40          	mov    0x40(%rbx),%rbx
ffffffff80201c61:	48 85 db             	test   %rbx,%rbx
ffffffff80201c64:	75 e8                	jne    ffffffff80201c4e <next_runnable_kthread+0x10>
ffffffff80201c66:	eb 05                	jmp    ffffffff80201c6d <next_runnable_kthread+0x2f>
ffffffff80201c68:	48 85 db             	test   %rbx,%rbx
ffffffff80201c6b:	75 18                	jne    ffffffff80201c85 <next_runnable_kthread+0x47>
ffffffff80201c6d:	48 8d 15 85 63 00 00 	lea    25477(%rip),%rdx        # ffffffff80207ff9 <__FUNCTION__.1376+0x2999>
ffffffff80201c74:	be e2 00 00 00       	mov    $0xe2,%esi
ffffffff80201c79:	48 8d 3d 00 39 00 00 	lea    14592(%rip),%rdi        # ffffffff80205580 <__FUNCTION__.1536>
ffffffff80201c80:	e8 af 10 00 00       	callq  ffffffff80202d34 <PANIC>
ffffffff80201c85:	48 89 de             	mov    %rbx,%rsi
ffffffff80201c88:	48 8b 3d d1 74 00 00 	mov    29905(%rip),%rdi        # ffffffff80209160 <__FUNCTION__.1376+0x3b00>
ffffffff80201c8f:	e8 10 ff ff ff       	callq  ffffffff80201ba4 <remove_runnable_kthread>
ffffffff80201c94:	48 89 d8             	mov    %rbx,%rax
ffffffff80201c97:	5b                   	pop    %rbx
ffffffff80201c98:	c3                   	retq   

ffffffff80201c99 <Schedule>:
ffffffff80201c99:	53                   	push   %rbx
ffffffff80201c9a:	e8 5a fd ff ff       	callq  ffffffff802019f9 <disable_interrupts>
ffffffff80201c9f:	b8 00 00 00 00       	mov    $0x0,%eax
ffffffff80201ca4:	e8 95 ff ff ff       	callq  ffffffff80201c3e <next_runnable_kthread>
ffffffff80201ca9:	48 89 c3             	mov    %rax,%rbx
ffffffff80201cac:	48 85 c0             	test   %rax,%rax
ffffffff80201caf:	75 18                	jne    ffffffff80201cc9 <Schedule+0x30>
ffffffff80201cb1:	48 8d 15 48 63 00 00 	lea    25416(%rip),%rdx        # ffffffff80208000 <__FUNCTION__.1376+0x29a0>
ffffffff80201cb8:	be fa 00 00 00       	mov    $0xfa,%esi
ffffffff80201cbd:	48 8d 3d ac 38 00 00 	lea    14508(%rip),%rdi        # ffffffff80205570 <__FUNCTION__.1541>
ffffffff80201cc4:	e8 6b 10 00 00       	callq  ffffffff80202d34 <PANIC>
ffffffff80201cc9:	48 89 df             	mov    %rbx,%rdi
ffffffff80201ccc:	e8 d7 16 00 00       	callq  ffffffff802033a8 <Switch_To_Thread>
ffffffff80201cd1:	e8 25 fd ff ff       	callq  ffffffff802019fb <enable_interrupts>
ffffffff80201cd6:	5b                   	pop    %rbx
ffffffff80201cd7:	c3                   	retq   

ffffffff80201cd8 <Push>:
ffffffff80201cd8:	48 8b 07             	mov    (%rdi),%rax
ffffffff80201cdb:	48 8d 50 f8          	lea    0xfffffffffffffff8(%rax),%rdx
ffffffff80201cdf:	48 89 17             	mov    %rdx,(%rdi)
ffffffff80201ce2:	48 89 70 f8          	mov    %rsi,0xfffffffffffffff8(%rax)
ffffffff80201ce6:	c3                   	retq   

ffffffff80201ce7 <Push_General_Registers>:
ffffffff80201ce7:	53                   	push   %rbx
ffffffff80201ce8:	48 89 fb             	mov    %rdi,%rbx
ffffffff80201ceb:	be 00 00 00 00       	mov    $0x0,%esi
ffffffff80201cf0:	e8 e3 ff ff ff       	callq  ffffffff80201cd8 <Push>
ffffffff80201cf5:	be 00 00 00 00       	mov    $0x0,%esi
ffffffff80201cfa:	48 89 df             	mov    %rbx,%rdi
ffffffff80201cfd:	e8 d6 ff ff ff       	callq  ffffffff80201cd8 <Push>
ffffffff80201d02:	be 00 00 00 00       	mov    $0x0,%esi
ffffffff80201d07:	48 89 df             	mov    %rbx,%rdi
ffffffff80201d0a:	e8 c9 ff ff ff       	callq  ffffffff80201cd8 <Push>
ffffffff80201d0f:	be 00 00 00 00       	mov    $0x0,%esi
ffffffff80201d14:	48 89 df             	mov    %rbx,%rdi
ffffffff80201d17:	e8 bc ff ff ff       	callq  ffffffff80201cd8 <Push>
ffffffff80201d1c:	be 00 00 00 00       	mov    $0x0,%esi
ffffffff80201d21:	48 89 df             	mov    %rbx,%rdi
ffffffff80201d24:	e8 af ff ff ff       	callq  ffffffff80201cd8 <Push>
ffffffff80201d29:	be 00 00 00 00       	mov    $0x0,%esi
ffffffff80201d2e:	48 89 df             	mov    %rbx,%rdi
ffffffff80201d31:	e8 a2 ff ff ff       	callq  ffffffff80201cd8 <Push>
ffffffff80201d36:	be 00 00 00 00       	mov    $0x0,%esi
ffffffff80201d3b:	48 89 df             	mov    %rbx,%rdi
ffffffff80201d3e:	e8 95 ff ff ff       	callq  ffffffff80201cd8 <Push>
ffffffff80201d43:	be 00 00 00 00       	mov    $0x0,%esi
ffffffff80201d48:	48 89 df             	mov    %rbx,%rdi
ffffffff80201d4b:	e8 88 ff ff ff       	callq  ffffffff80201cd8 <Push>
ffffffff80201d50:	be 00 00 00 00       	mov    $0x0,%esi
ffffffff80201d55:	48 89 df             	mov    %rbx,%rdi
ffffffff80201d58:	e8 7b ff ff ff       	callq  ffffffff80201cd8 <Push>
ffffffff80201d5d:	be 00 00 00 00       	mov    $0x0,%esi
ffffffff80201d62:	48 89 df             	mov    %rbx,%rdi
ffffffff80201d65:	e8 6e ff ff ff       	callq  ffffffff80201cd8 <Push>
ffffffff80201d6a:	be 00 00 00 00       	mov    $0x0,%esi
ffffffff80201d6f:	48 89 df             	mov    %rbx,%rdi
ffffffff80201d72:	e8 61 ff ff ff       	callq  ffffffff80201cd8 <Push>
ffffffff80201d77:	be 00 00 00 00       	mov    $0x0,%esi
ffffffff80201d7c:	48 89 df             	mov    %rbx,%rdi
ffffffff80201d7f:	e8 54 ff ff ff       	callq  ffffffff80201cd8 <Push>
ffffffff80201d84:	be 00 00 00 00       	mov    $0x0,%esi
ffffffff80201d89:	48 89 df             	mov    %rbx,%rdi
ffffffff80201d8c:	e8 47 ff ff ff       	callq  ffffffff80201cd8 <Push>
ffffffff80201d91:	be 00 00 00 00       	mov    $0x0,%esi
ffffffff80201d96:	48 89 df             	mov    %rbx,%rdi
ffffffff80201d99:	e8 3a ff ff ff       	callq  ffffffff80201cd8 <Push>
ffffffff80201d9e:	be 00 00 00 00       	mov    $0x0,%esi
ffffffff80201da3:	48 89 df             	mov    %rbx,%rdi
ffffffff80201da6:	e8 2d ff ff ff       	callq  ffffffff80201cd8 <Push>
ffffffff80201dab:	5b                   	pop    %rbx
ffffffff80201dac:	c3                   	retq   

ffffffff80201dad <is_interrupt_on>:
ffffffff80201dad:	48 83 ec 08          	sub    $0x8,%rsp
ffffffff80201db1:	b8 00 00 00 00       	mov    $0x0,%eax
ffffffff80201db6:	e8 f8 16 00 00       	callq  ffffffff802034b3 <get_flag_register>
ffffffff80201dbb:	25 00 02 00 00       	and    $0x200,%eax
ffffffff80201dc0:	48 83 c4 08          	add    $0x8,%rsp
ffffffff80201dc4:	c3                   	retq   

ffffffff80201dc5 <Exit_thread>:
ffffffff80201dc5:	55                   	push   %rbp
ffffffff80201dc6:	53                   	push   %rbx
ffffffff80201dc7:	48 83 ec 08          	sub    $0x8,%rsp
ffffffff80201dcb:	89 fd                	mov    %edi,%ebp
ffffffff80201dcd:	48 8b 05 cc 73 00 00 	mov    29644(%rip),%rax        # ffffffff802091a0 <__FUNCTION__.1376+0x3b40>
ffffffff80201dd4:	48 8b 18             	mov    (%rax),%rbx
ffffffff80201dd7:	e8 d1 ff ff ff       	callq  ffffffff80201dad <is_interrupt_on>
ffffffff80201ddc:	85 c0                	test   %eax,%eax
ffffffff80201dde:	74 05                	je     ffffffff80201de5 <Exit_thread+0x20>
ffffffff80201de0:	e8 14 fc ff ff       	callq  ffffffff802019f9 <disable_interrupts>
ffffffff80201de5:	0f b7 ed             	movzwl %bp,%ebp
ffffffff80201de8:	89 ab a0 00 00 00    	mov    %ebp,0xa0(%rbx)
ffffffff80201dee:	c7 83 90 00 00 00 00 	movl   $0x0,0x90(%rbx)
ffffffff80201df5:	00 00 00 
ffffffff80201df8:	e8 9c fe ff ff       	callq  ffffffff80201c99 <Schedule>
ffffffff80201dfd:	48 83 c4 08          	add    $0x8,%rsp
ffffffff80201e01:	5b                   	pop    %rbx
ffffffff80201e02:	5d                   	pop    %rbp
ffffffff80201e03:	c3                   	retq   

ffffffff80201e04 <thread_exit>:
ffffffff80201e04:	48 83 ec 08          	sub    $0x8,%rsp
ffffffff80201e08:	bf 00 00 00 00       	mov    $0x0,%edi
ffffffff80201e0d:	e8 b3 ff ff ff       	callq  ffffffff80201dc5 <Exit_thread>
ffffffff80201e12:	48 83 c4 08          	add    $0x8,%rsp
ffffffff80201e16:	c3                   	retq   

ffffffff80201e17 <Hello>:
ffffffff80201e17:	55                   	push   %rbp
ffffffff80201e18:	53                   	push   %rbx
ffffffff80201e19:	48 83 ec 08          	sub    $0x8,%rsp
ffffffff80201e1d:	bb 01 00 00 00       	mov    $0x1,%ebx
ffffffff80201e22:	bd d3 4d 62 10       	mov    $0x10624dd3,%ebp
ffffffff80201e27:	ff c3                	inc    %ebx
ffffffff80201e29:	89 d8                	mov    %ebx,%eax
ffffffff80201e2b:	f7 ed                	imul   %ebp
ffffffff80201e2d:	c1 fa 06             	sar    $0x6,%edx
ffffffff80201e30:	89 d8                	mov    %ebx,%eax
ffffffff80201e32:	c1 f8 1f             	sar    $0x1f,%eax
ffffffff80201e35:	29 c2                	sub    %eax,%edx
ffffffff80201e37:	69 d2 e8 03 00 00    	imul   $0x3e8,%edx,%edx
ffffffff80201e3d:	39 d3                	cmp    %edx,%ebx
ffffffff80201e3f:	75 e6                	jne    ffffffff80201e27 <Hello+0x10>
ffffffff80201e41:	48 8d 3d cc 61 00 00 	lea    25036(%rip),%rdi        # ffffffff80208014 <__FUNCTION__.1376+0x29b4>
ffffffff80201e48:	b8 00 00 00 00       	mov    $0x0,%eax
ffffffff80201e4d:	e8 89 0c 00 00       	callq  ffffffff80202adb <printf>
ffffffff80201e52:	eb d3                	jmp    ffffffff80201e27 <Hello+0x10>

ffffffff80201e54 <World>:
ffffffff80201e54:	55                   	push   %rbp
ffffffff80201e55:	53                   	push   %rbx
ffffffff80201e56:	48 83 ec 08          	sub    $0x8,%rsp
ffffffff80201e5a:	bb 01 00 00 00       	mov    $0x1,%ebx
ffffffff80201e5f:	bd d3 4d 62 10       	mov    $0x10624dd3,%ebp
ffffffff80201e64:	ff c3                	inc    %ebx
ffffffff80201e66:	89 d8                	mov    %ebx,%eax
ffffffff80201e68:	f7 ed                	imul   %ebp
ffffffff80201e6a:	c1 fa 06             	sar    $0x6,%edx
ffffffff80201e6d:	89 d8                	mov    %ebx,%eax
ffffffff80201e6f:	c1 f8 1f             	sar    $0x1f,%eax
ffffffff80201e72:	29 c2                	sub    %eax,%edx
ffffffff80201e74:	69 d2 e8 03 00 00    	imul   $0x3e8,%edx,%edx
ffffffff80201e7a:	39 d3                	cmp    %edx,%ebx
ffffffff80201e7c:	75 e6                	jne    ffffffff80201e64 <World+0x10>
ffffffff80201e7e:	48 8d 3d 99 61 00 00 	lea    24985(%rip),%rdi        # ffffffff8020801e <__FUNCTION__.1376+0x29be>
ffffffff80201e85:	b8 00 00 00 00       	mov    $0x0,%eax
ffffffff80201e8a:	e8 4c 0c 00 00       	callq  ffffffff80202adb <printf>
ffffffff80201e8f:	eb d3                	jmp    ffffffff80201e64 <World+0x10>

ffffffff80201e91 <init_thread_queue>:
ffffffff80201e91:	48 c7 47 08 00 00 00 	movq   $0x0,0x8(%rdi)
ffffffff80201e98:	00 
ffffffff80201e99:	48 c7 07 00 00 00 00 	movq   $0x0,(%rdi)
ffffffff80201ea0:	c3                   	retq   

ffffffff80201ea1 <setup_kthread>:
ffffffff80201ea1:	55                   	push   %rbp
ffffffff80201ea2:	53                   	push   %rbx
ffffffff80201ea3:	48 83 ec 08          	sub    $0x8,%rsp
ffffffff80201ea7:	48 89 fb             	mov    %rdi,%rbx
ffffffff80201eaa:	48 89 f5             	mov    %rsi,%rbp
ffffffff80201ead:	0f b7 f2             	movzwl %dx,%esi
ffffffff80201eb0:	e8 23 fe ff ff       	callq  ffffffff80201cd8 <Push>
ffffffff80201eb5:	48 8d 35 48 ff ff ff 	lea    -184(%rip),%rsi        # ffffffff80201e04 <thread_exit>
ffffffff80201ebc:	48 89 df             	mov    %rbx,%rdi
ffffffff80201ebf:	e8 14 fe ff ff       	callq  ffffffff80201cd8 <Push>
ffffffff80201ec4:	48 89 ee             	mov    %rbp,%rsi
ffffffff80201ec7:	48 89 df             	mov    %rbx,%rdi
ffffffff80201eca:	e8 09 fe ff ff       	callq  ffffffff80201cd8 <Push>
ffffffff80201ecf:	48 8b 05 6a 72 00 00 	mov    29290(%rip),%rax        # ffffffff80209140 <__FUNCTION__.1376+0x3ae0>
ffffffff80201ed6:	48 8b 30             	mov    (%rax),%rsi
ffffffff80201ed9:	48 89 df             	mov    %rbx,%rdi
ffffffff80201edc:	e8 f7 fd ff ff       	callq  ffffffff80201cd8 <Push>
ffffffff80201ee1:	48 8b 03             	mov    (%rbx),%rax
ffffffff80201ee4:	48 8d 70 08          	lea    0x8(%rax),%rsi
ffffffff80201ee8:	48 89 df             	mov    %rbx,%rdi
ffffffff80201eeb:	e8 e8 fd ff ff       	callq  ffffffff80201cd8 <Push>
ffffffff80201ef0:	be 00 00 00 00       	mov    $0x0,%esi
ffffffff80201ef5:	48 89 df             	mov    %rbx,%rdi
ffffffff80201ef8:	e8 db fd ff ff       	callq  ffffffff80201cd8 <Push>
ffffffff80201efd:	48 8b 05 9c 73 00 00 	mov    29596(%rip),%rax        # ffffffff802092a0 <__FUNCTION__.1376+0x3c40>
ffffffff80201f04:	48 8b 30             	mov    (%rax),%rsi
ffffffff80201f07:	48 89 df             	mov    %rbx,%rdi
ffffffff80201f0a:	e8 c9 fd ff ff       	callq  ffffffff80201cd8 <Push>
ffffffff80201f0f:	48 8b 35 f2 72 00 00 	mov    29426(%rip),%rsi        # ffffffff80209208 <__FUNCTION__.1376+0x3ba8>
ffffffff80201f16:	48 89 df             	mov    %rbx,%rdi
ffffffff80201f19:	e8 ba fd ff ff       	callq  ffffffff80201cd8 <Push>
ffffffff80201f1e:	be 00 00 00 00       	mov    $0x0,%esi
ffffffff80201f23:	48 89 df             	mov    %rbx,%rdi
ffffffff80201f26:	e8 ad fd ff ff       	callq  ffffffff80201cd8 <Push>
ffffffff80201f2b:	be 00 00 00 00       	mov    $0x0,%esi
ffffffff80201f30:	48 89 df             	mov    %rbx,%rdi
ffffffff80201f33:	e8 a0 fd ff ff       	callq  ffffffff80201cd8 <Push>
ffffffff80201f38:	48 89 df             	mov    %rbx,%rdi
ffffffff80201f3b:	e8 a7 fd ff ff       	callq  ffffffff80201ce7 <Push_General_Registers>
ffffffff80201f40:	48 83 c4 08          	add    $0x8,%rsp
ffffffff80201f44:	5b                   	pop    %rbx
ffffffff80201f45:	5d                   	pop    %rbp
ffffffff80201f46:	c3                   	retq   

ffffffff80201f47 <Get_Current>:
ffffffff80201f47:	48 8b 05 52 72 00 00 	mov    29266(%rip),%rax        # ffffffff802091a0 <__FUNCTION__.1376+0x3b40>
ffffffff80201f4e:	48 8b 00             	mov    (%rax),%rax
ffffffff80201f51:	c3                   	retq   

ffffffff80201f52 <runnable_kthread>:
ffffffff80201f52:	48 83 ec 08          	sub    $0x8,%rsp
ffffffff80201f56:	48 89 fe             	mov    %rdi,%rsi
ffffffff80201f59:	48 8b 3d 00 72 00 00 	mov    29184(%rip),%rdi        # ffffffff80209160 <__FUNCTION__.1376+0x3b00>
ffffffff80201f60:	e8 be fa ff ff       	callq  ffffffff80201a23 <append_run_queue>
ffffffff80201f65:	48 83 c4 08          	add    $0x8,%rsp
ffffffff80201f69:	c3                   	retq   

ffffffff80201f6a <Yield>:
ffffffff80201f6a:	48 83 ec 08          	sub    $0x8,%rsp
ffffffff80201f6e:	e8 86 fa ff ff       	callq  ffffffff802019f9 <disable_interrupts>
ffffffff80201f73:	e8 cf ff ff ff       	callq  ffffffff80201f47 <Get_Current>
ffffffff80201f78:	48 89 c7             	mov    %rax,%rdi
ffffffff80201f7b:	e8 d2 ff ff ff       	callq  ffffffff80201f52 <runnable_kthread>
ffffffff80201f80:	e8 76 fa ff ff       	callq  ffffffff802019fb <enable_interrupts>
ffffffff80201f85:	e8 0f fd ff ff       	callq  ffffffff80201c99 <Schedule>
ffffffff80201f8a:	48 83 c4 08          	add    $0x8,%rsp
ffffffff80201f8e:	c3                   	retq   

ffffffff80201f8f <Idle>:
ffffffff80201f8f:	48 83 ec 08          	sub    $0x8,%rsp
ffffffff80201f93:	e8 d2 ff ff ff       	callq  ffffffff80201f6a <Yield>
ffffffff80201f98:	eb f9                	jmp    ffffffff80201f93 <Idle+0x4>

ffffffff80201f9a <alllist_kthread>:
ffffffff80201f9a:	48 83 ec 08          	sub    $0x8,%rsp
ffffffff80201f9e:	48 89 fe             	mov    %rdi,%rsi
ffffffff80201fa1:	48 8b 3d 40 72 00 00 	mov    29248(%rip),%rdi        # ffffffff802091e8 <__FUNCTION__.1376+0x3b88>
ffffffff80201fa8:	e8 d7 fa ff ff       	callq  ffffffff80201a84 <append_global_list_queue>
ffffffff80201fad:	48 83 c4 08          	add    $0x8,%rsp
ffffffff80201fb1:	c3                   	retq   

ffffffff80201fb2 <start_kthread>:
ffffffff80201fb2:	41 57                	push   %r15
ffffffff80201fb4:	41 56                	push   %r14
ffffffff80201fb6:	41 55                	push   %r13
ffffffff80201fb8:	41 54                	push   %r12
ffffffff80201fba:	55                   	push   %rbp
ffffffff80201fbb:	53                   	push   %rbx
ffffffff80201fbc:	48 83 ec 08          	sub    $0x8,%rsp
ffffffff80201fc0:	49 89 fc             	mov    %rdi,%r12
ffffffff80201fc3:	49 89 f5             	mov    %rsi,%r13
ffffffff80201fc6:	41 89 d6             	mov    %edx,%r14d
ffffffff80201fc9:	89 cd                	mov    %ecx,%ebp
ffffffff80201fcb:	45 89 c7             	mov    %r8d,%r15d
ffffffff80201fce:	be 01 00 00 00       	mov    $0x1,%esi
ffffffff80201fd3:	bf 00 00 00 00       	mov    $0x0,%edi
ffffffff80201fd8:	e8 22 1f 00 00       	callq  ffffffff80203eff <sub_malloc>
ffffffff80201fdd:	48 89 c3             	mov    %rax,%rbx
ffffffff80201fe0:	48 85 c0             	test   %rax,%rax
ffffffff80201fe3:	0f 84 1a 01 00 00    	je     ffffffff80202103 <start_kthread+0x151>
ffffffff80201fe9:	be 01 00 00 00       	mov    $0x1,%esi
ffffffff80201fee:	bf 00 00 00 00       	mov    $0x0,%edi
ffffffff80201ff3:	e8 07 1f 00 00       	callq  ffffffff80203eff <sub_malloc>
ffffffff80201ff8:	48 85 c0             	test   %rax,%rax
ffffffff80201ffb:	75 0f                	jne    ffffffff8020200c <start_kthread+0x5a>
ffffffff80201ffd:	bf 00 00 00 00       	mov    $0x0,%edi
ffffffff80202002:	e8 bd 1e 00 00       	callq  ffffffff80203ec4 <sub_free>
ffffffff80202007:	e9 f7 00 00 00       	jmpq   ffffffff80202103 <start_kthread+0x151>
ffffffff8020200c:	45 85 ff             	test   %r15d,%r15d
ffffffff8020200f:	0f 85 c2 00 00 00    	jne    ffffffff802020d7 <start_kthread+0x125>
ffffffff80202015:	48 8b 15 84 71 00 00 	mov    29060(%rip),%rdx        # ffffffff802091a0 <__FUNCTION__.1376+0x3b40>
ffffffff8020201c:	48 8b 12             	mov    (%rdx),%rdx
ffffffff8020201f:	48 89 43 48          	mov    %rax,0x48(%rbx)
ffffffff80202023:	48 05 00 10 00 00    	add    $0x1000,%rax
ffffffff80202029:	48 89 03             	mov    %rax,(%rbx)
ffffffff8020202c:	0f b7 ed             	movzwl %bp,%ebp
ffffffff8020202f:	89 6b 34             	mov    %ebp,0x34(%rbx)
ffffffff80202032:	48 89 53 58          	mov    %rdx,0x58(%rbx)
ffffffff80202036:	c7 43 30 00 00 00 00 	movl   $0x0,0x30(%rbx)
ffffffff8020203d:	b8 02 00 00 00       	mov    $0x2,%eax
ffffffff80202042:	89 43 78             	mov    %eax,0x78(%rbx)
ffffffff80202045:	48 c7 43 08 01 00 00 	movq   $0x1,0x8(%rbx)
ffffffff8020204c:	00 
ffffffff8020204d:	c7 83 90 00 00 00 01 	movl   $0x1,0x90(%rbx)
ffffffff80202054:	00 00 00 
ffffffff80202057:	c7 43 50 01 00 00 00 	movl   $0x1,0x50(%rbx)
ffffffff8020205e:	4c 89 ab 98 00 00 00 	mov    %r13,0x98(%rbx)
ffffffff80202065:	b8 00 00 00 00       	mov    $0x0,%eax
ffffffff8020206a:	e8 88 1f 00 00       	callq  ffffffff80203ff7 <get_cr3_register>
ffffffff8020206f:	48 89 43 18          	mov    %rax,0x18(%rbx)
ffffffff80202073:	48 8b 05 3e 71 00 00 	mov    28990(%rip),%rax        # ffffffff802091b8 <__FUNCTION__.1376+0x3b58>
ffffffff8020207a:	48 8b 00             	mov    (%rax),%rax
ffffffff8020207d:	48 89 43 20          	mov    %rax,0x20(%rbx)
ffffffff80202081:	48 8d 7b 68          	lea    0x68(%rbx),%rdi
ffffffff80202085:	e8 07 fe ff ff       	callq  ffffffff80201e91 <init_thread_queue>
ffffffff8020208a:	b8 00 00 00 00       	mov    $0x0,%eax
ffffffff8020208f:	e8 77 f9 ff ff       	callq  ffffffff80201a0b <alloc_pid>
ffffffff80202094:	89 83 a4 00 00 00    	mov    %eax,0xa4(%rbx)
ffffffff8020209a:	48 89 de             	mov    %rbx,%rsi
ffffffff8020209d:	48 8b 3d 44 71 00 00 	mov    28996(%rip),%rdi        # ffffffff802091e8 <__FUNCTION__.1376+0x3b88>
ffffffff802020a4:	e8 db f9 ff ff       	callq  ffffffff80201a84 <append_global_list_queue>
ffffffff802020a9:	48 89 df             	mov    %rbx,%rdi
ffffffff802020ac:	e8 1f f9 ff ff       	callq  ffffffff802019d0 <add_to_ptable>
ffffffff802020b1:	41 0f b7 d6          	movzwl %r14w,%edx
ffffffff802020b5:	4c 89 e6             	mov    %r12,%rsi
ffffffff802020b8:	48 89 df             	mov    %rbx,%rdi
ffffffff802020bb:	e8 e1 fd ff ff       	callq  ffffffff80201ea1 <setup_kthread>
ffffffff802020c0:	e8 34 f9 ff ff       	callq  ffffffff802019f9 <disable_interrupts>
ffffffff802020c5:	48 89 df             	mov    %rbx,%rdi
ffffffff802020c8:	e8 85 fe ff ff       	callq  ffffffff80201f52 <runnable_kthread>
ffffffff802020cd:	e8 29 f9 ff ff       	callq  ffffffff802019fb <enable_interrupts>
ffffffff802020d2:	48 89 d8             	mov    %rbx,%rax
ffffffff802020d5:	eb 3b                	jmp    ffffffff80202112 <start_kthread+0x160>
ffffffff802020d7:	48 89 43 48          	mov    %rax,0x48(%rbx)
ffffffff802020db:	48 05 00 10 00 00    	add    $0x1000,%rax
ffffffff802020e1:	48 89 03             	mov    %rax,(%rbx)
ffffffff802020e4:	0f b7 ed             	movzwl %bp,%ebp
ffffffff802020e7:	89 6b 34             	mov    %ebp,0x34(%rbx)
ffffffff802020ea:	48 c7 43 58 00 00 00 	movq   $0x0,0x58(%rbx)
ffffffff802020f1:	00 
ffffffff802020f2:	c7 43 30 00 00 00 00 	movl   $0x0,0x30(%rbx)
ffffffff802020f9:	b8 01 00 00 00       	mov    $0x1,%eax
ffffffff802020fe:	e9 3f ff ff ff       	jmpq   ffffffff80202042 <start_kthread+0x90>
ffffffff80202103:	bf 00 00 00 00       	mov    $0x0,%edi
ffffffff80202108:	e8 c3 f8 ff ff       	callq  ffffffff802019d0 <add_to_ptable>
ffffffff8020210d:	b8 00 00 00 00       	mov    $0x0,%eax
ffffffff80202112:	48 83 c4 08          	add    $0x8,%rsp
ffffffff80202116:	5b                   	pop    %rbx
ffffffff80202117:	5d                   	pop    %rbp
ffffffff80202118:	41 5c                	pop    %r12
ffffffff8020211a:	41 5d                	pop    %r13
ffffffff8020211c:	41 5e                	pop    %r14
ffffffff8020211e:	41 5f                	pop    %r15
ffffffff80202120:	c3                   	retq   

ffffffff80202121 <scheduler_init>:
ffffffff80202121:	53                   	push   %rbx
ffffffff80202122:	be 01 00 00 00       	mov    $0x1,%esi
ffffffff80202127:	bf 00 00 00 00       	mov    $0x0,%edi
ffffffff8020212c:	e8 ce 1d 00 00       	callq  ffffffff80203eff <sub_malloc>
ffffffff80202131:	48 89 c3             	mov    %rax,%rbx
ffffffff80202134:	48 8b 05 b5 6f 00 00 	mov    28597(%rip),%rax        # ffffffff802090f0 <__FUNCTION__.1376+0x3a90>
ffffffff8020213b:	48 8b 00             	mov    (%rax),%rax
ffffffff8020213e:	48 89 43 48          	mov    %rax,0x48(%rbx)
ffffffff80202142:	48 05 00 10 00 00    	add    $0x1000,%rax
ffffffff80202148:	48 89 03             	mov    %rax,(%rbx)
ffffffff8020214b:	c7 43 34 05 00 00 00 	movl   $0x5,0x34(%rbx)
ffffffff80202152:	48 c7 43 58 00 00 00 	movq   $0x0,0x58(%rbx)
ffffffff80202159:	00 
ffffffff8020215a:	c7 43 30 00 00 00 00 	movl   $0x0,0x30(%rbx)
ffffffff80202161:	c7 43 78 01 00 00 00 	movl   $0x1,0x78(%rbx)
ffffffff80202168:	48 c7 43 08 01 00 00 	movq   $0x1,0x8(%rbx)
ffffffff8020216f:	00 
ffffffff80202170:	c7 83 90 00 00 00 01 	movl   $0x1,0x90(%rbx)
ffffffff80202177:	00 00 00 
ffffffff8020217a:	c7 43 50 01 00 00 00 	movl   $0x1,0x50(%rbx)
ffffffff80202181:	48 8d 05 9d 5e 00 00 	lea    24221(%rip),%rax        # ffffffff80208025 <__FUNCTION__.1376+0x29c5>
ffffffff80202188:	48 89 83 98 00 00 00 	mov    %rax,0x98(%rbx)
ffffffff8020218f:	b8 00 00 00 00       	mov    $0x0,%eax
ffffffff80202194:	e8 5e 1e 00 00       	callq  ffffffff80203ff7 <get_cr3_register>
ffffffff80202199:	48 89 43 18          	mov    %rax,0x18(%rbx)
ffffffff8020219d:	48 8b 05 14 70 00 00 	mov    28692(%rip),%rax        # ffffffff802091b8 <__FUNCTION__.1376+0x3b58>
ffffffff802021a4:	48 8b 00             	mov    (%rax),%rax
ffffffff802021a7:	48 89 43 20          	mov    %rax,0x20(%rbx)
ffffffff802021ab:	48 8d 7b 68          	lea    0x68(%rbx),%rdi
ffffffff802021af:	e8 dd fc ff ff       	callq  ffffffff80201e91 <init_thread_queue>
ffffffff802021b4:	b8 00 00 00 00       	mov    $0x0,%eax
ffffffff802021b9:	e8 4d f8 ff ff       	callq  ffffffff80201a0b <alloc_pid>
ffffffff802021be:	89 83 a4 00 00 00    	mov    %eax,0xa4(%rbx)
ffffffff802021c4:	48 8b 05 d5 6f 00 00 	mov    28629(%rip),%rax        # ffffffff802091a0 <__FUNCTION__.1376+0x3b40>
ffffffff802021cb:	48 89 18             	mov    %rbx,(%rax)
ffffffff802021ce:	48 89 de             	mov    %rbx,%rsi
ffffffff802021d1:	48 8b 3d 10 70 00 00 	mov    28688(%rip),%rdi        # ffffffff802091e8 <__FUNCTION__.1376+0x3b88>
ffffffff802021d8:	e8 a7 f8 ff ff       	callq  ffffffff80201a84 <append_global_list_queue>
ffffffff802021dd:	41 b8 01 00 00 00    	mov    $0x1,%r8d
ffffffff802021e3:	b9 05 00 00 00       	mov    $0x5,%ecx
ffffffff802021e8:	ba 00 00 00 00       	mov    $0x0,%edx
ffffffff802021ed:	48 8d 35 36 5e 00 00 	lea    24118(%rip),%rsi        # ffffffff8020802a <__FUNCTION__.1376+0x29ca>
ffffffff802021f4:	48 8b 3d 5d 70 00 00 	mov    28765(%rip),%rdi        # ffffffff80209258 <__FUNCTION__.1376+0x3bf8>
ffffffff802021fb:	e8 b2 fd ff ff       	callq  ffffffff80201fb2 <start_kthread>
ffffffff80202200:	48 8b 05 b9 6e 00 00 	mov    28345(%rip),%rax        # ffffffff802090c0 <__FUNCTION__.1376+0x3a60>
ffffffff80202207:	c7 00 01 00 00 00    	movl   $0x1,(%rax)
ffffffff8020220d:	e8 87 fa ff ff       	callq  ffffffff80201c99 <Schedule>
ffffffff80202212:	5b                   	pop    %rbx
ffffffff80202213:	c3                   	retq   

ffffffff80202214 <hello_in_user_mode>:
ffffffff80202214:	f3 c3                	repz retq 

ffffffff80202216 <set_kernel_stack>:
ffffffff80202216:	48 8b 05 eb 6e 00 00 	mov    28395(%rip),%rax        # ffffffff80209108 <__FUNCTION__.1376+0x3aa8>
ffffffff8020221d:	48 89 78 04          	mov    %rdi,0x4(%rax)
ffffffff80202221:	c3                   	retq   

ffffffff80202222 <start>:
ffffffff80202222:	48 83 ec 08          	sub    $0x8,%rsp
ffffffff80202226:	48 8d 3d 03 5e 00 00 	lea    24067(%rip),%rdi        # ffffffff80208030 <__FUNCTION__.1376+0x29d0>
ffffffff8020222d:	e8 2b e4 ff ff       	callq  ffffffff8020065d <do_exec>
ffffffff80202232:	e8 33 fd ff ff       	callq  ffffffff80201f6a <Yield>
ffffffff80202237:	eb f9                	jmp    ffffffff80202232 <start+0x10>

ffffffff80202239 <boot>:
ffffffff80202239:	48 83 ec 08          	sub    $0x8,%rsp
ffffffff8020223d:	48 8b 05 ac 6e 00 00 	mov    28332(%rip),%rax        # ffffffff802090f0 <__FUNCTION__.1376+0x3a90>
ffffffff80202244:	48 8d 90 00 10 00 00 	lea    0x1000(%rax),%rdx
ffffffff8020224b:	48 8b 05 be 6e 00 00 	mov    28350(%rip),%rax        # ffffffff80209110 <__FUNCTION__.1376+0x3ab0>
ffffffff80202252:	48 89 20             	mov    %rsp,(%rax)
ffffffff80202255:	48 89 d4             	mov    %rdx,%rsp
ffffffff80202258:	b8 00 00 00 00       	mov    $0x0,%eax
ffffffff8020225d:	e8 05 e8 ff ff       	callq  ffffffff80200a67 <setup_tss>
ffffffff80202262:	b8 00 00 00 00       	mov    $0x0,%eax
ffffffff80202267:	e8 dc e7 ff ff       	callq  ffffffff80200a48 <reload_gdt>
ffffffff8020226c:	b8 00 00 00 00       	mov    $0x0,%eax
ffffffff80202271:	e8 d6 ea ff ff       	callq  ffffffff80200d4c <reload_idt>
ffffffff80202276:	b8 00 00 00 00       	mov    $0x0,%eax
ffffffff8020227b:	e8 e2 eb ff ff       	callq  ffffffff80200e62 <irq_install>
ffffffff80202280:	b8 00 00 00 00       	mov    $0x0,%eax
ffffffff80202285:	e8 04 0e 00 00       	callq  ffffffff8020308e <timer_install>
ffffffff8020228a:	b8 00 00 00 00       	mov    $0x0,%eax
ffffffff8020228f:	e8 1a f7 ff ff       	callq  ffffffff802019ae <keyboard_install>
ffffffff80202294:	fb                   	sti    
ffffffff80202295:	48 8b 05 74 6e 00 00 	mov    28276(%rip),%rax        # ffffffff80209110 <__FUNCTION__.1376+0x3ab0>
ffffffff8020229c:	48 8b 00             	mov    (%rax),%rax
ffffffff8020229f:	48 8b 3d 0a 6f 00 00 	mov    28426(%rip),%rdi        # ffffffff802091b0 <__FUNCTION__.1376+0x3b50>
ffffffff802022a6:	48 2b 3d 33 6e 00 00 	sub    28211(%rip),%rdi        # ffffffff802090e0 <__FUNCTION__.1376+0x3a80>
ffffffff802022ad:	8b 50 0c             	mov    0xc(%rax),%edx
ffffffff802022b0:	48 01 d7             	add    %rdx,%rdi
ffffffff802022b3:	48 8b 15 96 6d 00 00 	mov    28054(%rip),%rdx        # ffffffff80209050 <__FUNCTION__.1376+0x39f0>
ffffffff802022ba:	8b 40 10             	mov    0x10(%rax),%eax
ffffffff802022bd:	48 89 02             	mov    %rax,(%rdx)
ffffffff802022c0:	e8 98 19 00 00       	callq  ffffffff80203c5d <mm_phy_init>
ffffffff802022c5:	b8 00 00 00 00       	mov    $0x0,%eax
ffffffff802022ca:	e8 cf 2d 00 00       	callq  ffffffff8020509e <vmmgr_init>
ffffffff802022cf:	b8 00 00 00 00       	mov    $0x0,%eax
ffffffff802022d4:	e8 e7 21 00 00       	callq  ffffffff802044c0 <vmmgr_page_allocator_init>
ffffffff802022d9:	b8 00 00 00 00       	mov    $0x0,%eax
ffffffff802022de:	e8 f4 09 00 00       	callq  ffffffff80202cd7 <cls>
ffffffff802022e3:	e8 39 fe ff ff       	callq  ffffffff80202121 <scheduler_init>
ffffffff802022e8:	ba 21 00 00 00       	mov    $0x21,%edx
ffffffff802022ed:	48 8d 05 46 5d 00 00 	lea    23878(%rip),%rax        # ffffffff8020803a <__FUNCTION__.1376+0x29da>
ffffffff802022f4:	48 89 c1             	mov    %rax,%rcx
ffffffff802022f7:	48 89 c6             	mov    %rax,%rsi
ffffffff802022fa:	48 29 ce             	sub    %rcx,%rsi
ffffffff802022fd:	88 94 36 00 80 0b 00 	mov    %dl,0xb8000(%rsi,%rsi,1)
ffffffff80202304:	48 ff c0             	inc    %rax
ffffffff80202307:	0f b6 10             	movzbl (%rax),%edx
ffffffff8020230a:	84 d2                	test   %dl,%dl
ffffffff8020230c:	75 e9                	jne    ffffffff802022f7 <boot+0xbe>
ffffffff8020230e:	eb fe                	jmp    ffffffff8020230e <boot+0xd5>

ffffffff80202310 <insert_vma>:
ffffffff80202310:	48 8b 86 a8 00 00 00 	mov    0xa8(%rsi),%rax
ffffffff80202317:	48 c7 47 20 00 00 00 	movq   $0x0,0x20(%rdi)
ffffffff8020231e:	00 
ffffffff8020231f:	48 85 c0             	test   %rax,%rax
ffffffff80202322:	75 09                	jne    ffffffff8020232d <insert_vma+0x1d>
ffffffff80202324:	48 89 be a8 00 00 00 	mov    %rdi,0xa8(%rsi)
ffffffff8020232b:	eb 0b                	jmp    ffffffff80202338 <insert_vma+0x28>
ffffffff8020232d:	48 8b 86 b0 00 00 00 	mov    0xb0(%rsi),%rax
ffffffff80202334:	48 89 78 20          	mov    %rdi,0x20(%rax)
ffffffff80202338:	48 89 be b0 00 00 00 	mov    %rdi,0xb0(%rsi)
ffffffff8020233f:	c3                   	retq   

ffffffff80202340 <mmap>:
ffffffff80202340:	55                   	push   %rbp
ffffffff80202341:	53                   	push   %rbx
ffffffff80202342:	48 83 ec 08          	sub    $0x8,%rsp
ffffffff80202346:	48 89 fd             	mov    %rdi,%rbp
ffffffff80202349:	be 00 00 00 00       	mov    $0x0,%esi
ffffffff8020234e:	bf 28 00 00 00       	mov    $0x28,%edi
ffffffff80202353:	e8 a7 1b 00 00       	callq  ffffffff80203eff <sub_malloc>
ffffffff80202358:	48 89 c3             	mov    %rax,%rbx
ffffffff8020235b:	ba 28 00 00 00       	mov    $0x28,%edx
ffffffff80202360:	be 00 00 00 00       	mov    $0x0,%esi
ffffffff80202365:	48 89 c7             	mov    %rax,%rdi
ffffffff80202368:	e8 b6 04 00 00       	callq  ffffffff80202823 <memset>
ffffffff8020236d:	b8 00 00 00 00       	mov    $0x0,%eax
ffffffff80202372:	e8 67 15 00 00       	callq  ffffffff802038de <mmgr_alloc_block>
ffffffff80202377:	ba 01 00 00 00       	mov    $0x1,%edx
ffffffff8020237c:	48 89 ee             	mov    %rbp,%rsi
ffffffff8020237f:	48 89 c7             	mov    %rax,%rdi
ffffffff80202382:	e8 19 2a 00 00       	callq  ffffffff80204da0 <vmmgr_map_page_after_paging>
ffffffff80202387:	48 8d 05 c9 5c 00 00 	lea    23753(%rip),%rax        # ffffffff80208057 <__FUNCTION__.1376+0x29f7>
ffffffff8020238e:	48 89 03             	mov    %rax,(%rbx)
ffffffff80202391:	48 89 6b 08          	mov    %rbp,0x8(%rbx)
ffffffff80202395:	48 81 c5 00 10 00 00 	add    $0x1000,%rbp
ffffffff8020239c:	48 89 6b 10          	mov    %rbp,0x10(%rbx)
ffffffff802023a0:	48 8b 74 24 20       	mov    0x20(%rsp),%rsi
ffffffff802023a5:	48 89 df             	mov    %rbx,%rdi
ffffffff802023a8:	e8 63 ff ff ff       	callq  ffffffff80202310 <insert_vma>
ffffffff802023ad:	48 83 c4 08          	add    $0x8,%rsp
ffffffff802023b1:	5b                   	pop    %rbx
ffffffff802023b2:	5d                   	pop    %rbp
ffffffff802023b3:	c3                   	retq   
	...

ffffffff802023c0 <parseline>:
ffffffff802023c0:	41 56                	push   %r14
ffffffff802023c2:	41 55                	push   %r13
ffffffff802023c4:	41 54                	push   %r12
ffffffff802023c6:	55                   	push   %rbp
ffffffff802023c7:	53                   	push   %rbx
ffffffff802023c8:	48 83 ec 10          	sub    $0x10,%rsp
ffffffff802023cc:	48 c7 44 24 06 20 09 	movq   $0xa0d0920,0x6(%rsp)
ffffffff802023d3:	0d 0a 
ffffffff802023d5:	66 c7 44 24 0e 00 00 	movw   $0x0,0xe(%rsp)
ffffffff802023dc:	48 85 ff             	test   %rdi,%rdi
ffffffff802023df:	75 1b                	jne    ffffffff802023fc <parseline+0x3c>
ffffffff802023e1:	48 8d 3d 7c 5c 00 00 	lea    23676(%rip),%rdi        # ffffffff80208064 <__FUNCTION__.1376+0x2a04>
ffffffff802023e8:	b8 00 00 00 00       	mov    $0x0,%eax
ffffffff802023ed:	e8 e9 06 00 00       	callq  ffffffff80202adb <printf>
ffffffff802023f2:	b8 ff ff ff ff       	mov    $0xffffffff,%eax
ffffffff802023f7:	e9 b3 00 00 00       	jmpq   ffffffff802024af <parseline+0xef>
ffffffff802023fc:	48 89 f3             	mov    %rsi,%rbx
ffffffff802023ff:	ba 64 00 00 00       	mov    $0x64,%edx
ffffffff80202404:	48 89 fe             	mov    %rdi,%rsi
ffffffff80202407:	48 8d 3d 92 7c 00 00 	lea    31890(%rip),%rdi        # ffffffff8020a0a0 <array.1519>
ffffffff8020240e:	e8 87 04 00 00       	callq  ffffffff8020289a <strncpy>
ffffffff80202413:	48 8d 3d 86 7c 00 00 	lea    31878(%rip),%rdi        # ffffffff8020a0a0 <array.1519>
ffffffff8020241a:	e8 f9 08 00 00       	callq  ffffffff80202d18 <strlen>
ffffffff8020241f:	4c 63 e8             	movslq %eax,%r13
ffffffff80202422:	48 8d 15 77 7c 00 00 	lea    31863(%rip),%rdx        # ffffffff8020a0a0 <array.1519>
ffffffff80202429:	49 01 d5             	add    %rdx,%r13
ffffffff8020242c:	c7 03 00 00 00 00    	movl   $0x0,(%rbx)
ffffffff80202432:	49 39 d5             	cmp    %rdx,%r13
ffffffff80202435:	76 6c                	jbe    ffffffff802024a3 <parseline+0xe3>
ffffffff80202437:	48 89 d5             	mov    %rdx,%rbp
ffffffff8020243a:	4c 8d 74 24 06       	lea    0x6(%rsp),%r14
ffffffff8020243f:	4c 89 f6             	mov    %r14,%rsi
ffffffff80202442:	48 89 ef             	mov    %rbp,%rdi
ffffffff80202445:	e8 3b 0a 00 00       	callq  ffffffff80202e85 <strcpsn>
ffffffff8020244a:	41 89 c4             	mov    %eax,%r12d
ffffffff8020244d:	8b 13                	mov    (%rbx),%edx
ffffffff8020244f:	8d 42 01             	lea    0x1(%rdx),%eax
ffffffff80202452:	89 03                	mov    %eax,(%rbx)
ffffffff80202454:	48 63 d2             	movslq %edx,%rdx
ffffffff80202457:	48 89 6c d3 08       	mov    %rbp,0x8(%rbx,%rdx,8)
ffffffff8020245c:	48 8b 7b 08          	mov    0x8(%rbx),%rdi
ffffffff80202460:	48 8d 35 1a 5c 00 00 	lea    23578(%rip),%rsi        # ffffffff80208081 <__FUNCTION__.1376+0x2a21>
ffffffff80202467:	e8 9a 09 00 00       	callq  ffffffff80202e06 <strcmp>
ffffffff8020246c:	85 c0                	test   %eax,%eax
ffffffff8020246e:	75 09                	jne    ffffffff80202479 <parseline+0xb9>
ffffffff80202470:	c7 43 58 01 00 00 00 	movl   $0x1,0x58(%rbx)
ffffffff80202477:	eb 1b                	jmp    ffffffff80202494 <parseline+0xd4>
ffffffff80202479:	48 8b 7b 08          	mov    0x8(%rbx),%rdi
ffffffff8020247d:	48 8d 35 02 5c 00 00 	lea    23554(%rip),%rsi        # ffffffff80208086 <__FUNCTION__.1376+0x2a26>
ffffffff80202484:	e8 7d 09 00 00       	callq  ffffffff80202e06 <strcmp>
ffffffff80202489:	83 f8 01             	cmp    $0x1,%eax
ffffffff8020248c:	19 c0                	sbb    %eax,%eax
ffffffff8020248e:	83 e0 02             	and    $0x2,%eax
ffffffff80202491:	89 43 58             	mov    %eax,0x58(%rbx)
ffffffff80202494:	4d 63 e4             	movslq %r12d,%r12
ffffffff80202497:	4a 8d 6c 25 01       	lea    0x1(%rbp,%r12,1),%rbp
ffffffff8020249c:	49 39 ed             	cmp    %rbp,%r13
ffffffff8020249f:	77 9e                	ja     ffffffff8020243f <parseline+0x7f>
ffffffff802024a1:	eb 07                	jmp    ffffffff802024aa <parseline+0xea>
ffffffff802024a3:	b8 00 00 00 00       	mov    $0x0,%eax
ffffffff802024a8:	eb 05                	jmp    ffffffff802024af <parseline+0xef>
ffffffff802024aa:	b8 00 00 00 00       	mov    $0x0,%eax
ffffffff802024af:	48 83 c4 10          	add    $0x10,%rsp
ffffffff802024b3:	5b                   	pop    %rbx
ffffffff802024b4:	5d                   	pop    %rbp
ffffffff802024b5:	41 5c                	pop    %r12
ffffffff802024b7:	41 5d                	pop    %r13
ffffffff802024b9:	41 5e                	pop    %r14
ffffffff802024bb:	c3                   	retq   

ffffffff802024bc <usage>:
ffffffff802024bc:	48 83 ec 08          	sub    $0x8,%rsp
ffffffff802024c0:	48 8d 3d c4 5b 00 00 	lea    23492(%rip),%rdi        # ffffffff8020808b <__FUNCTION__.1376+0x2a2b>
ffffffff802024c7:	b8 00 00 00 00       	mov    $0x0,%eax
ffffffff802024cc:	e8 0a 06 00 00       	callq  ffffffff80202adb <printf>
ffffffff802024d1:	48 8d 3d c8 33 00 00 	lea    13256(%rip),%rdi        # ffffffff802058a0 <__FUNCTION__.1376+0x240>
ffffffff802024d8:	b8 00 00 00 00       	mov    $0x0,%eax
ffffffff802024dd:	e8 f9 05 00 00       	callq  ffffffff80202adb <printf>
ffffffff802024e2:	48 8d 3d df 33 00 00 	lea    13279(%rip),%rdi        # ffffffff802058c8 <__FUNCTION__.1376+0x268>
ffffffff802024e9:	b8 00 00 00 00       	mov    $0x0,%eax
ffffffff802024ee:	e8 e8 05 00 00       	callq  ffffffff80202adb <printf>
ffffffff802024f3:	48 83 c4 08          	add    $0x8,%rsp
ffffffff802024f7:	c3                   	retq   

ffffffff802024f8 <exec>:
ffffffff802024f8:	48 83 ec 08          	sub    $0x8,%rsp
ffffffff802024fc:	e8 5c e1 ff ff       	callq  ffffffff8020065d <do_exec>
ffffffff80202501:	66 85 c0             	test   %ax,%ax
ffffffff80202504:	75 0c                	jne    ffffffff80202512 <exec+0x1a>
ffffffff80202506:	48 8d 3d eb 33 00 00 	lea    13291(%rip),%rdi        # ffffffff802058f8 <__FUNCTION__.1376+0x298>
ffffffff8020250d:	e8 c9 05 00 00       	callq  ffffffff80202adb <printf>
ffffffff80202512:	48 83 c4 08          	add    $0x8,%rsp
ffffffff80202516:	c3                   	retq   

ffffffff80202517 <eval>:
ffffffff80202517:	41 57                	push   %r15
ffffffff80202519:	41 56                	push   %r14
ffffffff8020251b:	41 55                	push   %r13
ffffffff8020251d:	41 54                	push   %r12
ffffffff8020251f:	55                   	push   %rbp
ffffffff80202520:	53                   	push   %rbx
ffffffff80202521:	48 81 ec 38 01 00 00 	sub    $0x138,%rsp
ffffffff80202528:	48 8d b4 24 d0 00 00 	lea    0xd0(%rsp),%rsi
ffffffff8020252f:	00 
ffffffff80202530:	e8 8b fe ff ff       	callq  ffffffff802023c0 <parseline>
ffffffff80202535:	83 bc 24 d0 00 00 00 	cmpl   $0x0,0xd0(%rsp)
ffffffff8020253c:	00 
ffffffff8020253d:	0f 8e 34 01 00 00    	jle    ffffffff80202677 <eval+0x160>
ffffffff80202543:	bb 00 00 00 00       	mov    $0x0,%ebx
ffffffff80202548:	41 bd 00 00 00 00    	mov    $0x0,%r13d
ffffffff8020254e:	4c 8d 74 24 6c       	lea    0x6c(%rsp),%r14
ffffffff80202553:	4c 8d 64 24 08       	lea    0x8(%rsp),%r12
ffffffff80202558:	4c 8d 3d 43 5b 00 00 	lea    23363(%rip),%r15        # ffffffff802080a2 <__FUNCTION__.1376+0x2a42>
ffffffff8020255f:	ba 64 00 00 00       	mov    $0x64,%edx
ffffffff80202564:	be 00 00 00 00       	mov    $0x0,%esi
ffffffff80202569:	4c 89 f7             	mov    %r14,%rdi
ffffffff8020256c:	e8 b2 02 00 00       	callq  ffffffff80202823 <memset>
ffffffff80202571:	ba 64 00 00 00       	mov    $0x64,%edx
ffffffff80202576:	be 00 00 00 00       	mov    $0x0,%esi
ffffffff8020257b:	4c 89 e7             	mov    %r12,%rdi
ffffffff8020257e:	e8 a0 02 00 00       	callq  ffffffff80202823 <memset>
ffffffff80202583:	48 63 db             	movslq %ebx,%rbx
ffffffff80202586:	48 8b bc dc d8 00 00 	mov    0xd8(%rsp,%rbx,8),%rdi
ffffffff8020258d:	00 
ffffffff8020258e:	e8 85 07 00 00       	callq  ffffffff80202d18 <strlen>
ffffffff80202593:	48 8b b4 dc d8 00 00 	mov    0xd8(%rsp,%rbx,8),%rsi
ffffffff8020259a:	00 
ffffffff8020259b:	89 c2                	mov    %eax,%edx
ffffffff8020259d:	4c 89 e7             	mov    %r12,%rdi
ffffffff802025a0:	e8 f5 02 00 00       	callq  ffffffff8020289a <strncpy>
ffffffff802025a5:	0f b6 44 24 08       	movzbl 0x8(%rsp),%eax
ffffffff802025aa:	3c 0d                	cmp    $0xd,%al
ffffffff802025ac:	74 3d                	je     ffffffff802025eb <eval+0xd4>
ffffffff802025ae:	3c 20                	cmp    $0x20,%al
ffffffff802025b0:	74 39                	je     ffffffff802025eb <eval+0xd4>
ffffffff802025b2:	bb 00 00 00 00       	mov    $0x0,%ebx
ffffffff802025b7:	bd 00 00 00 00       	mov    $0x0,%ebp
ffffffff802025bc:	eb 21                	jmp    ffffffff802025df <eval+0xc8>
ffffffff802025be:	48 63 db             	movslq %ebx,%rbx
ffffffff802025c1:	0f b6 44 1c 08       	movzbl 0x8(%rsp,%rbx,1),%eax
ffffffff802025c6:	88 44 1c 6c          	mov    %al,0x6c(%rsp,%rbx,1)
ffffffff802025ca:	ff c5                	inc    %ebp
ffffffff802025cc:	0f b7 dd             	movzwl %bp,%ebx
ffffffff802025cf:	48 63 c3             	movslq %ebx,%rax
ffffffff802025d2:	0f b6 44 04 08       	movzbl 0x8(%rsp,%rax,1),%eax
ffffffff802025d7:	3c 0d                	cmp    $0xd,%al
ffffffff802025d9:	74 10                	je     ffffffff802025eb <eval+0xd4>
ffffffff802025db:	3c 20                	cmp    $0x20,%al
ffffffff802025dd:	74 0c                	je     ffffffff802025eb <eval+0xd4>
ffffffff802025df:	4c 89 e7             	mov    %r12,%rdi
ffffffff802025e2:	e8 31 07 00 00       	callq  ffffffff80202d18 <strlen>
ffffffff802025e7:	39 d8                	cmp    %ebx,%eax
ffffffff802025e9:	7f d3                	jg     ffffffff802025be <eval+0xa7>
ffffffff802025eb:	4c 89 fe             	mov    %r15,%rsi
ffffffff802025ee:	4c 89 f7             	mov    %r14,%rdi
ffffffff802025f1:	e8 10 08 00 00       	callq  ffffffff80202e06 <strcmp>
ffffffff802025f6:	85 c0                	test   %eax,%eax
ffffffff802025f8:	75 08                	jne    ffffffff80202602 <eval+0xeb>
ffffffff802025fa:	e8 d8 06 00 00       	callq  ffffffff80202cd7 <cls>
ffffffff802025ff:	90                   	nop    
ffffffff80202600:	eb 61                	jmp    ffffffff80202663 <eval+0x14c>
ffffffff80202602:	48 8d 35 9d 5a 00 00 	lea    23197(%rip),%rsi        # ffffffff802080a6 <__FUNCTION__.1376+0x2a46>
ffffffff80202609:	4c 89 f7             	mov    %r14,%rdi
ffffffff8020260c:	e8 f5 07 00 00       	callq  ffffffff80202e06 <strcmp>
ffffffff80202611:	85 c0                	test   %eax,%eax
ffffffff80202613:	75 0d                	jne    ffffffff80202622 <eval+0x10b>
ffffffff80202615:	e8 a2 fe ff ff       	callq  ffffffff802024bc <usage>
ffffffff8020261a:	66 0f 1f 44 00 00    	nopw   0x0(%rax,%rax,1)
ffffffff80202620:	eb 41                	jmp    ffffffff80202663 <eval+0x14c>
ffffffff80202622:	48 8d 35 7f 5a 00 00 	lea    23167(%rip),%rsi        # ffffffff802080a8 <__FUNCTION__.1376+0x2a48>
ffffffff80202629:	4c 89 f7             	mov    %r14,%rdi
ffffffff8020262c:	e8 d5 07 00 00       	callq  ffffffff80202e06 <strcmp>
ffffffff80202631:	85 c0                	test   %eax,%eax
ffffffff80202633:	75 0f                	jne    ffffffff80202644 <eval+0x12d>
ffffffff80202635:	48 8b bc 24 e0 00 00 	mov    0xe0(%rsp),%rdi
ffffffff8020263c:	00 
ffffffff8020263d:	e8 b6 fe ff ff       	callq  ffffffff802024f8 <exec>
ffffffff80202642:	eb 1f                	jmp    ffffffff80202663 <eval+0x14c>
ffffffff80202644:	48 8d 35 66 5a 00 00 	lea    23142(%rip),%rsi        # ffffffff802080b1 <__FUNCTION__.1376+0x2a51>
ffffffff8020264b:	4c 89 f7             	mov    %r14,%rdi
ffffffff8020264e:	e8 b3 07 00 00       	callq  ffffffff80202e06 <strcmp>
ffffffff80202653:	85 c0                	test   %eax,%eax
ffffffff80202655:	75 0c                	jne    ffffffff80202663 <eval+0x14c>
ffffffff80202657:	48 8d 3d 4f 5a 00 00 	lea    23119(%rip),%rdi        # ffffffff802080ad <__FUNCTION__.1376+0x2a4d>
ffffffff8020265e:	e8 95 fe ff ff       	callq  ffffffff802024f8 <exec>
ffffffff80202663:	41 ff c5             	inc    %r13d
ffffffff80202666:	41 0f b7 dd          	movzwl %r13w,%ebx
ffffffff8020266a:	3b 9c 24 d0 00 00 00 	cmp    0xd0(%rsp),%ebx
ffffffff80202671:	0f 8c e8 fe ff ff    	jl     ffffffff8020255f <eval+0x48>
ffffffff80202677:	48 81 c4 38 01 00 00 	add    $0x138,%rsp
ffffffff8020267e:	5b                   	pop    %rbx
ffffffff8020267f:	5d                   	pop    %rbp
ffffffff80202680:	41 5c                	pop    %r12
ffffffff80202682:	41 5d                	pop    %r13
ffffffff80202684:	41 5e                	pop    %r14
ffffffff80202686:	41 5f                	pop    %r15
ffffffff80202688:	c3                   	retq   

ffffffff80202689 <shell_main>:
ffffffff80202689:	41 54                	push   %r12
ffffffff8020268b:	55                   	push   %rbp
ffffffff8020268c:	53                   	push   %rbx
ffffffff8020268d:	48 83 ec 70          	sub    $0x70,%rsp
ffffffff80202691:	48 b8 53 42 55 49 4e 	mov    $0x203e584e49554253,%rax
ffffffff80202698:	58 3e 20 
ffffffff8020269b:	48 89 44 24 03       	mov    %rax,0x3(%rsp)
ffffffff802026a0:	c6 44 24 0b 00       	movb   $0x0,0xb(%rsp)
ffffffff802026a5:	48 8d 7c 24 0c       	lea    0xc(%rsp),%rdi
ffffffff802026aa:	ba 64 00 00 00       	mov    $0x64,%edx
ffffffff802026af:	be 00 00 00 00       	mov    $0x0,%esi
ffffffff802026b4:	e8 6a 01 00 00       	callq  ffffffff80202823 <memset>
ffffffff802026b9:	b8 00 00 00 00       	mov    $0x0,%eax
ffffffff802026be:	e8 14 06 00 00       	callq  ffffffff80202cd7 <cls>
ffffffff802026c3:	48 8d 3d 4e 32 00 00 	lea    12878(%rip),%rdi        # ffffffff80205918 <__FUNCTION__.1376+0x2b8>
ffffffff802026ca:	b8 00 00 00 00       	mov    $0x0,%eax
ffffffff802026cf:	e8 07 04 00 00       	callq  ffffffff80202adb <printf>
ffffffff802026d4:	4c 8d 64 24 03       	lea    0x3(%rsp),%r12
ffffffff802026d9:	48 8d 2d b7 58 00 00 	lea    22711(%rip),%rbp        # ffffffff80207f97 <__FUNCTION__.1376+0x2937>
ffffffff802026e0:	48 8d 5c 24 0c       	lea    0xc(%rsp),%rbx
ffffffff802026e5:	4c 89 e6             	mov    %r12,%rsi
ffffffff802026e8:	48 89 ef             	mov    %rbp,%rdi
ffffffff802026eb:	b8 00 00 00 00       	mov    $0x0,%eax
ffffffff802026f0:	e8 e6 03 00 00       	callq  ffffffff80202adb <printf>
ffffffff802026f5:	48 89 df             	mov    %rbx,%rdi
ffffffff802026f8:	e8 c7 ee ff ff       	callq  ffffffff802015c4 <doread>
ffffffff802026fd:	48 89 df             	mov    %rbx,%rdi
ffffffff80202700:	e8 13 06 00 00       	callq  ffffffff80202d18 <strlen>
ffffffff80202705:	ff c8                	dec    %eax
ffffffff80202707:	48 98                	cltq   
ffffffff80202709:	c6 44 04 0c 00       	movb   $0x0,0xc(%rsp,%rax,1)
ffffffff8020270e:	48 89 df             	mov    %rbx,%rdi
ffffffff80202711:	e8 01 fe ff ff       	callq  ffffffff80202517 <eval>
ffffffff80202716:	eb cd                	jmp    ffffffff802026e5 <shell_main+0x5c>

ffffffff80202718 <convert>:
ffffffff80202718:	c6 05 41 7a 00 00 00 	movb   $0x0,31297(%rip)        # ffffffff8020a160 <buf.1146+0x40>
ffffffff8020271f:	48 8d 0d 3a 7a 00 00 	lea    31290(%rip),%rcx        # ffffffff8020a160 <buf.1146+0x40>
ffffffff80202726:	48 63 f6             	movslq %esi,%rsi
ffffffff80202729:	48 ff c9             	dec    %rcx
ffffffff8020272c:	48 89 f8             	mov    %rdi,%rax
ffffffff8020272f:	ba 00 00 00 00       	mov    $0x0,%edx
ffffffff80202734:	48 f7 f6             	div    %rsi
ffffffff80202737:	48 8d 3d 76 59 00 00 	lea    22902(%rip),%rdi        # ffffffff802080b4 <__FUNCTION__.1376+0x2a54>
ffffffff8020273e:	0f b6 14 17          	movzbl (%rdi,%rdx,1),%edx
ffffffff80202742:	88 11                	mov    %dl,(%rcx)
ffffffff80202744:	48 89 c7             	mov    %rax,%rdi
ffffffff80202747:	48 85 c0             	test   %rax,%rax
ffffffff8020274a:	75 dd                	jne    ffffffff80202729 <convert+0x11>
ffffffff8020274c:	48 89 c8             	mov    %rcx,%rax
ffffffff8020274f:	c3                   	retq   

ffffffff80202750 <write_time>:
ffffffff80202750:	41 57                	push   %r15
ffffffff80202752:	41 56                	push   %r14
ffffffff80202754:	41 55                	push   %r13
ffffffff80202756:	41 54                	push   %r12
ffffffff80202758:	55                   	push   %rbp
ffffffff80202759:	53                   	push   %rbx
ffffffff8020275a:	48 83 ec 08          	sub    $0x8,%rsp
ffffffff8020275e:	89 fd                	mov    %edi,%ebp
ffffffff80202760:	41 89 f4             	mov    %esi,%r12d
ffffffff80202763:	41 89 d5             	mov    %edx,%r13d
ffffffff80202766:	41 89 ce             	mov    %ecx,%r14d
ffffffff80202769:	45 89 c7             	mov    %r8d,%r15d
ffffffff8020276c:	48 8b 05 a5 6a 00 00 	mov    27301(%rip),%rax        # ffffffff80209218 <__FUNCTION__.1376+0x3bb8>
ffffffff80202773:	48 8b 18             	mov    (%rax),%rbx
ffffffff80202776:	41 0f b7 f9          	movzwl %r9w,%edi
ffffffff8020277a:	be 0a 00 00 00       	mov    $0xa,%esi
ffffffff8020277f:	e8 94 ff ff ff       	callq  ffffffff80202718 <convert>
ffffffff80202784:	0f b6 00             	movzbl (%rax),%eax
ffffffff80202787:	88 03                	mov    %al,(%rbx)
ffffffff80202789:	c6 43 01 1f          	movb   $0x1f,0x1(%rbx)
ffffffff8020278d:	41 0f b7 ff          	movzwl %r15w,%edi
ffffffff80202791:	be 0a 00 00 00       	mov    $0xa,%esi
ffffffff80202796:	e8 7d ff ff ff       	callq  ffffffff80202718 <convert>
ffffffff8020279b:	0f b6 00             	movzbl (%rax),%eax
ffffffff8020279e:	88 43 02             	mov    %al,0x2(%rbx)
ffffffff802027a1:	c6 43 03 1f          	movb   $0x1f,0x3(%rbx)
ffffffff802027a5:	c6 43 04 3a          	movb   $0x3a,0x4(%rbx)
ffffffff802027a9:	c6 43 05 1f          	movb   $0x1f,0x5(%rbx)
ffffffff802027ad:	41 0f b7 fe          	movzwl %r14w,%edi
ffffffff802027b1:	be 0a 00 00 00       	mov    $0xa,%esi
ffffffff802027b6:	e8 5d ff ff ff       	callq  ffffffff80202718 <convert>
ffffffff802027bb:	0f b6 00             	movzbl (%rax),%eax
ffffffff802027be:	88 43 06             	mov    %al,0x6(%rbx)
ffffffff802027c1:	c6 43 07 1f          	movb   $0x1f,0x7(%rbx)
ffffffff802027c5:	41 0f b7 fd          	movzwl %r13w,%edi
ffffffff802027c9:	be 0a 00 00 00       	mov    $0xa,%esi
ffffffff802027ce:	e8 45 ff ff ff       	callq  ffffffff80202718 <convert>
ffffffff802027d3:	0f b6 00             	movzbl (%rax),%eax
ffffffff802027d6:	88 43 08             	mov    %al,0x8(%rbx)
ffffffff802027d9:	c6 43 09 1f          	movb   $0x1f,0x9(%rbx)
ffffffff802027dd:	c6 43 0a 3a          	movb   $0x3a,0xa(%rbx)
ffffffff802027e1:	c6 43 0b 1f          	movb   $0x1f,0xb(%rbx)
ffffffff802027e5:	41 0f b7 fc          	movzwl %r12w,%edi
ffffffff802027e9:	be 0a 00 00 00       	mov    $0xa,%esi
ffffffff802027ee:	e8 25 ff ff ff       	callq  ffffffff80202718 <convert>
ffffffff802027f3:	0f b6 00             	movzbl (%rax),%eax
ffffffff802027f6:	88 43 0c             	mov    %al,0xc(%rbx)
ffffffff802027f9:	c6 43 0d 1f          	movb   $0x1f,0xd(%rbx)
ffffffff802027fd:	0f b7 fd             	movzwl %bp,%edi
ffffffff80202800:	be 0a 00 00 00       	mov    $0xa,%esi
ffffffff80202805:	e8 0e ff ff ff       	callq  ffffffff80202718 <convert>
ffffffff8020280a:	0f b6 00             	movzbl (%rax),%eax
ffffffff8020280d:	88 43 0e             	mov    %al,0xe(%rbx)
ffffffff80202810:	c6 43 0f 1f          	movb   $0x1f,0xf(%rbx)
ffffffff80202814:	48 83 c4 08          	add    $0x8,%rsp
ffffffff80202818:	5b                   	pop    %rbx
ffffffff80202819:	5d                   	pop    %rbp
ffffffff8020281a:	41 5c                	pop    %r12
ffffffff8020281c:	41 5d                	pop    %r13
ffffffff8020281e:	41 5e                	pop    %r14
ffffffff80202820:	41 5f                	pop    %r15
ffffffff80202822:	c3                   	retq   

ffffffff80202823 <memset>:
ffffffff80202823:	48 89 f8             	mov    %rdi,%rax
ffffffff80202826:	8d 4a ff             	lea    0xffffffffffffffff(%rdx),%ecx
ffffffff80202829:	85 d2                	test   %edx,%edx
ffffffff8020282b:	74 16                	je     ffffffff80202843 <memset+0x20>
ffffffff8020282d:	89 c9                	mov    %ecx,%ecx
ffffffff8020282f:	48 8d 4c 0f 01       	lea    0x1(%rdi,%rcx,1),%rcx
ffffffff80202834:	48 89 fa             	mov    %rdi,%rdx
ffffffff80202837:	48 ff c2             	inc    %rdx
ffffffff8020283a:	40 88 72 ff          	mov    %sil,0xffffffffffffffff(%rdx)
ffffffff8020283e:	48 39 ca             	cmp    %rcx,%rdx
ffffffff80202841:	75 f4                	jne    ffffffff80202837 <memset+0x14>
ffffffff80202843:	f3 c3                	repz retq 

ffffffff80202845 <write_key>:
ffffffff80202845:	48 8b 05 5c 68 00 00 	mov    26716(%rip),%rax        # ffffffff802090a8 <__FUNCTION__.1376+0x3a48>
ffffffff8020284c:	48 8b 00             	mov    (%rax),%rax
ffffffff8020284f:	40 88 30             	mov    %sil,(%rax)
ffffffff80202852:	40 88 78 01          	mov    %dil,0x1(%rax)
ffffffff80202856:	c3                   	retq   

ffffffff80202857 <write_io_buff>:
ffffffff80202857:	40 80 ff 0d          	cmp    $0xd,%dil
ffffffff8020285b:	74 06                	je     ffffffff80202863 <write_io_buff+0xc>
ffffffff8020285d:	40 80 ff 0a          	cmp    $0xa,%dil
ffffffff80202861:	75 22                	jne    ffffffff80202885 <write_io_buff+0x2e>
ffffffff80202863:	48 8b 15 5e 69 00 00 	mov    26974(%rip),%rdx        # ffffffff802091c8 <__FUNCTION__.1376+0x3b68>
ffffffff8020286a:	48 8b 02             	mov    (%rdx),%rax
ffffffff8020286d:	48 8d 48 01          	lea    0x1(%rax),%rcx
ffffffff80202871:	48 89 0a             	mov    %rcx,(%rdx)
ffffffff80202874:	40 88 38             	mov    %dil,(%rax)
ffffffff80202877:	48 8b 05 ea 68 00 00 	mov    26858(%rip),%rax        # ffffffff80209168 <__FUNCTION__.1376+0x3b08>
ffffffff8020287e:	c7 00 00 00 00 00    	movl   $0x0,(%rax)
ffffffff80202884:	c3                   	retq   
ffffffff80202885:	48 8b 15 3c 69 00 00 	mov    26940(%rip),%rdx        # ffffffff802091c8 <__FUNCTION__.1376+0x3b68>
ffffffff8020288c:	48 8b 02             	mov    (%rdx),%rax
ffffffff8020288f:	48 8d 48 01          	lea    0x1(%rax),%rcx
ffffffff80202893:	48 89 0a             	mov    %rcx,(%rdx)
ffffffff80202896:	40 88 38             	mov    %dil,(%rax)
ffffffff80202899:	c3                   	retq   

ffffffff8020289a <strncpy>:
ffffffff8020289a:	85 d2                	test   %edx,%edx
ffffffff8020289c:	74 13                	je     ffffffff802028b1 <strncpy+0x17>
ffffffff8020289e:	b8 00 00 00 00       	mov    $0x0,%eax
ffffffff802028a3:	0f b6 0c 06          	movzbl (%rsi,%rax,1),%ecx
ffffffff802028a7:	88 0c 07             	mov    %cl,(%rdi,%rax,1)
ffffffff802028aa:	48 ff c0             	inc    %rax
ffffffff802028ad:	39 c2                	cmp    %eax,%edx
ffffffff802028af:	77 f2                	ja     ffffffff802028a3 <strncpy+0x9>
ffffffff802028b1:	f3 c3                	repz retq 

ffffffff802028b3 <memcpy>:
ffffffff802028b3:	48 89 f8             	mov    %rdi,%rax
ffffffff802028b6:	8d 7a ff             	lea    0xffffffffffffffff(%rdx),%edi
ffffffff802028b9:	85 d2                	test   %edx,%edx
ffffffff802028bb:	74 19                	je     ffffffff802028d6 <memcpy+0x23>
ffffffff802028bd:	89 ff                	mov    %edi,%edi
ffffffff802028bf:	48 ff c7             	inc    %rdi
ffffffff802028c2:	ba 00 00 00 00       	mov    $0x0,%edx
ffffffff802028c7:	0f b6 0c 16          	movzbl (%rsi,%rdx,1),%ecx
ffffffff802028cb:	88 0c 10             	mov    %cl,(%rax,%rdx,1)
ffffffff802028ce:	48 ff c2             	inc    %rdx
ffffffff802028d1:	48 39 fa             	cmp    %rdi,%rdx
ffffffff802028d4:	75 f1                	jne    ffffffff802028c7 <memcpy+0x14>
ffffffff802028d6:	f3 c3                	repz retq 

ffffffff802028d8 <update_cursor>:
ffffffff802028d8:	48 83 ec 18          	sub    $0x18,%rsp
ffffffff802028dc:	48 8b 05 45 68 00 00 	mov    26693(%rip),%rax        # ffffffff80209128 <__FUNCTION__.1376+0x3ac8>
ffffffff802028e3:	48 8b 00             	mov    (%rax),%rax
ffffffff802028e6:	48 05 00 00 f0 7f    	add    $0x7ff00000,%rax
ffffffff802028ec:	48 89 44 24 08       	mov    %rax,0x8(%rsp)
ffffffff802028f1:	48 8b 44 24 08       	mov    0x8(%rsp),%rax
ffffffff802028f6:	48 ba cd cc cc cc cc 	mov    $0xcccccccccccccccd,%rdx
ffffffff802028fd:	cc cc cc 
ffffffff80202900:	48 f7 e2             	mul    %rdx
ffffffff80202903:	48 c1 ea 07          	shr    $0x7,%rdx
ffffffff80202907:	48 8b 74 24 08       	mov    0x8(%rsp),%rsi
ffffffff8020290c:	83 fa 17             	cmp    $0x17,%edx
ffffffff8020290f:	77 38                	ja     ffffffff80202949 <update_cursor+0x71>
ffffffff80202911:	89 d1                	mov    %edx,%ecx
ffffffff80202913:	69 d2 a0 00 00 00    	imul   $0xa0,%edx,%edx
ffffffff80202919:	89 d2                	mov    %edx,%edx
ffffffff8020291b:	48 29 d6             	sub    %rdx,%rsi
ffffffff8020291e:	48 d1 ee             	shr    %rsi
ffffffff80202921:	48 ba cd cc cc cc cc 	mov    $0xcccccccccccccccd,%rdx
ffffffff80202928:	cc cc cc 
ffffffff8020292b:	48 89 f0             	mov    %rsi,%rax
ffffffff8020292e:	48 f7 e2             	mul    %rdx
ffffffff80202931:	48 c1 ea 06          	shr    $0x6,%rdx
ffffffff80202935:	48 89 d0             	mov    %rdx,%rax
ffffffff80202938:	48 c1 e0 04          	shl    $0x4,%rax
ffffffff8020293c:	48 c1 e2 06          	shl    $0x6,%rdx
ffffffff80202940:	48 01 c2             	add    %rax,%rdx
ffffffff80202943:	89 f0                	mov    %esi,%eax
ffffffff80202945:	29 d0                	sub    %edx,%eax
ffffffff80202947:	eb 5d                	jmp    ffffffff802029a6 <update_cursor+0xce>
ffffffff80202949:	8d 42 e9             	lea    0xffffffffffffffe9(%rdx),%eax
ffffffff8020294c:	ba 18 00 00 00       	mov    $0x18,%edx
ffffffff80202951:	29 c2                	sub    %eax,%edx
ffffffff80202953:	69 d2 a0 00 00 00    	imul   $0xa0,%edx,%edx
ffffffff80202959:	69 c0 a0 00 00 00    	imul   $0xa0,%eax,%eax
ffffffff8020295f:	48 63 f0             	movslq %eax,%rsi
ffffffff80202962:	48 81 ee 00 00 f0 7f 	sub    $0x7ff00000,%rsi
ffffffff80202969:	48 c7 c7 00 00 10 80 	mov    $0xffffffff80100000,%rdi
ffffffff80202970:	e8 3e ff ff ff       	callq  ffffffff802028b3 <memcpy>
ffffffff80202975:	48 c7 c2 60 0e 10 80 	mov    $0xffffffff80100e60,%rdx
ffffffff8020297c:	48 8b 05 a5 67 00 00 	mov    26533(%rip),%rax        # ffffffff80209128 <__FUNCTION__.1376+0x3ac8>
ffffffff80202983:	48 89 10             	mov    %rdx,(%rax)
ffffffff80202986:	c6 02 20             	movb   $0x20,(%rdx)
ffffffff80202989:	48 8d 42 02          	lea    0x2(%rdx),%rax
ffffffff8020298d:	48 89 c2             	mov    %rax,%rdx
ffffffff80202990:	c6 40 ff 00          	movb   $0x0,0xffffffffffffffff(%rax)
ffffffff80202994:	48 3d 00 0f 10 80    	cmp    $0xffffffff80100f00,%rax
ffffffff8020299a:	75 ea                	jne    ffffffff80202986 <update_cursor+0xae>
ffffffff8020299c:	b8 00 00 00 00       	mov    $0x0,%eax
ffffffff802029a1:	b9 17 00 00 00       	mov    $0x17,%ecx
ffffffff802029a6:	89 ca                	mov    %ecx,%edx
ffffffff802029a8:	c1 e2 04             	shl    $0x4,%edx
ffffffff802029ab:	c1 e1 06             	shl    $0x6,%ecx
ffffffff802029ae:	01 d1                	add    %edx,%ecx
ffffffff802029b0:	01 c1                	add    %eax,%ecx
ffffffff802029b2:	ba d4 03 00 00       	mov    $0x3d4,%edx
ffffffff802029b7:	b8 0f 00 00 00       	mov    $0xf,%eax
ffffffff802029bc:	ee                   	out    %al,(%dx)
ffffffff802029bd:	b2 d5                	mov    $0xd5,%dl
ffffffff802029bf:	89 c8                	mov    %ecx,%eax
ffffffff802029c1:	ee                   	out    %al,(%dx)
ffffffff802029c2:	b2 d4                	mov    $0xd4,%dl
ffffffff802029c4:	b8 0e 00 00 00       	mov    $0xe,%eax
ffffffff802029c9:	ee                   	out    %al,(%dx)
ffffffff802029ca:	89 c8                	mov    %ecx,%eax
ffffffff802029cc:	66 c1 e8 08          	shr    $0x8,%ax
ffffffff802029d0:	b2 d5                	mov    $0xd5,%dl
ffffffff802029d2:	ee                   	out    %al,(%dx)
ffffffff802029d3:	48 83 c4 18          	add    $0x18,%rsp
ffffffff802029d7:	c3                   	retq   

ffffffff802029d8 <write_char>:
ffffffff802029d8:	48 83 ec 18          	sub    $0x18,%rsp
ffffffff802029dc:	48 8b 05 45 67 00 00 	mov    26437(%rip),%rax        # ffffffff80209128 <__FUNCTION__.1376+0x3ac8>
ffffffff802029e3:	48 8b 00             	mov    (%rax),%rax
ffffffff802029e6:	40 80 fe 0d          	cmp    $0xd,%sil
ffffffff802029ea:	74 06                	je     ffffffff802029f2 <write_char+0x1a>
ffffffff802029ec:	40 80 fe 0a          	cmp    $0xa,%sil
ffffffff802029f0:	75 3e                	jne    ffffffff80202a30 <write_char+0x58>
ffffffff802029f2:	48 05 a0 00 f0 7f    	add    $0x7ff000a0,%rax
ffffffff802029f8:	48 89 44 24 08       	mov    %rax,0x8(%rsp)
ffffffff802029fd:	48 8b 44 24 08       	mov    0x8(%rsp),%rax
ffffffff80202a02:	48 ba cd cc cc cc cc 	mov    $0xcccccccccccccccd,%rdx
ffffffff80202a09:	cc cc cc 
ffffffff80202a0c:	48 f7 e2             	mul    %rdx
ffffffff80202a0f:	48 c1 ea 07          	shr    $0x7,%rdx
ffffffff80202a13:	48 89 14 24          	mov    %rdx,(%rsp)
ffffffff80202a17:	48 8b 04 24          	mov    (%rsp),%rax
ffffffff80202a1b:	48 89 c2             	mov    %rax,%rdx
ffffffff80202a1e:	48 c1 e2 05          	shl    $0x5,%rdx
ffffffff80202a22:	48 c1 e0 07          	shl    $0x7,%rax
ffffffff80202a26:	48 8d 94 02 00 00 10 	lea    0xffffffff80100000(%rdx,%rax,1),%rdx
ffffffff80202a2d:	80 
ffffffff80202a2e:	eb 0b                	jmp    ffffffff80202a3b <write_char+0x63>
ffffffff80202a30:	40 88 30             	mov    %sil,(%rax)
ffffffff80202a33:	48 8d 50 02          	lea    0x2(%rax),%rdx
ffffffff80202a37:	40 88 78 01          	mov    %dil,0x1(%rax)
ffffffff80202a3b:	48 8b 05 e6 66 00 00 	mov    26342(%rip),%rax        # ffffffff80209128 <__FUNCTION__.1376+0x3ac8>
ffffffff80202a42:	48 89 10             	mov    %rdx,(%rax)
ffffffff80202a45:	b8 00 00 00 00       	mov    $0x0,%eax
ffffffff80202a4a:	e8 89 fe ff ff       	callq  ffffffff802028d8 <update_cursor>
ffffffff80202a4f:	48 83 c4 18          	add    $0x18,%rsp
ffffffff80202a53:	c3                   	retq   

ffffffff80202a54 <write_string>:
ffffffff80202a54:	48 83 ec 18          	sub    $0x18,%rsp
ffffffff80202a58:	48 8b 05 c9 66 00 00 	mov    26313(%rip),%rax        # ffffffff80209128 <__FUNCTION__.1376+0x3ac8>
ffffffff80202a5f:	48 8b 10             	mov    (%rax),%rdx
ffffffff80202a62:	48 ff c6             	inc    %rsi
ffffffff80202a65:	48 b9 cd cc cc cc cc 	mov    $0xcccccccccccccccd,%rcx
ffffffff80202a6c:	cc cc cc 
ffffffff80202a6f:	eb 49                	jmp    ffffffff80202aba <write_string+0x66>
ffffffff80202a71:	3c 0a                	cmp    $0xa,%al
ffffffff80202a73:	75 38                	jne    ffffffff80202aad <write_string+0x59>
ffffffff80202a75:	48 81 c2 a0 00 f0 7f 	add    $0x7ff000a0,%rdx
ffffffff80202a7c:	48 89 54 24 08       	mov    %rdx,0x8(%rsp)
ffffffff80202a81:	48 8b 54 24 08       	mov    0x8(%rsp),%rdx
ffffffff80202a86:	48 89 d0             	mov    %rdx,%rax
ffffffff80202a89:	48 f7 e1             	mul    %rcx
ffffffff80202a8c:	48 c1 ea 07          	shr    $0x7,%rdx
ffffffff80202a90:	48 89 14 24          	mov    %rdx,(%rsp)
ffffffff80202a94:	48 8b 04 24          	mov    (%rsp),%rax
ffffffff80202a98:	48 89 c2             	mov    %rax,%rdx
ffffffff80202a9b:	48 c1 e2 05          	shl    $0x5,%rdx
ffffffff80202a9f:	48 c1 e0 07          	shl    $0x7,%rax
ffffffff80202aa3:	48 8d 94 02 00 00 10 	lea    0xffffffff80100000(%rdx,%rax,1),%rdx
ffffffff80202aaa:	80 
ffffffff80202aab:	eb 0a                	jmp    ffffffff80202ab7 <write_string+0x63>
ffffffff80202aad:	88 02                	mov    %al,(%rdx)
ffffffff80202aaf:	40 88 7a 01          	mov    %dil,0x1(%rdx)
ffffffff80202ab3:	48 8d 52 02          	lea    0x2(%rdx),%rdx
ffffffff80202ab7:	48 ff c6             	inc    %rsi
ffffffff80202aba:	0f b6 46 ff          	movzbl 0xffffffffffffffff(%rsi),%eax
ffffffff80202abe:	84 c0                	test   %al,%al
ffffffff80202ac0:	75 af                	jne    ffffffff80202a71 <write_string+0x1d>
ffffffff80202ac2:	48 8b 05 5f 66 00 00 	mov    26207(%rip),%rax        # ffffffff80209128 <__FUNCTION__.1376+0x3ac8>
ffffffff80202ac9:	48 89 10             	mov    %rdx,(%rax)
ffffffff80202acc:	b8 00 00 00 00       	mov    $0x0,%eax
ffffffff80202ad1:	e8 02 fe ff ff       	callq  ffffffff802028d8 <update_cursor>
ffffffff80202ad6:	48 83 c4 18          	add    $0x18,%rsp
ffffffff80202ada:	c3                   	retq   

ffffffff80202adb <printf>:
ffffffff80202adb:	41 54                	push   %r12
ffffffff80202add:	55                   	push   %rbp
ffffffff80202ade:	53                   	push   %rbx
ffffffff80202adf:	48 83 ec 50          	sub    $0x50,%rsp
ffffffff80202ae3:	48 89 74 24 28       	mov    %rsi,0x28(%rsp)
ffffffff80202ae8:	48 89 54 24 30       	mov    %rdx,0x30(%rsp)
ffffffff80202aed:	48 89 4c 24 38       	mov    %rcx,0x38(%rsp)
ffffffff80202af2:	4c 89 44 24 40       	mov    %r8,0x40(%rsp)
ffffffff80202af7:	4c 89 4c 24 48       	mov    %r9,0x48(%rsp)
ffffffff80202afc:	48 89 fd             	mov    %rdi,%rbp
ffffffff80202aff:	c7 44 24 08 08 00 00 	movl   $0x8,0x8(%rsp)
ffffffff80202b06:	00 
ffffffff80202b07:	48 8d 44 24 70       	lea    0x70(%rsp),%rax
ffffffff80202b0c:	48 89 44 24 10       	mov    %rax,0x10(%rsp)
ffffffff80202b11:	48 8d 44 24 20       	lea    0x20(%rsp),%rax
ffffffff80202b16:	48 89 44 24 18       	mov    %rax,0x18(%rsp)
ffffffff80202b1b:	0f b6 37             	movzbl (%rdi),%esi
ffffffff80202b1e:	40 84 f6             	test   %sil,%sil
ffffffff80202b21:	0f 84 a2 01 00 00    	je     ffffffff80202cc9 <printf+0x1ee>
ffffffff80202b27:	4c 8d 25 6a 2a 00 00 	lea    10858(%rip),%r12        # ffffffff80205598 <__FUNCTION__.1536+0x18>
ffffffff80202b2e:	40 80 fe 25          	cmp    $0x25,%sil
ffffffff80202b32:	74 16                	je     ffffffff80202b4a <printf+0x6f>
ffffffff80202b34:	40 0f be f6          	movsbl %sil,%esi
ffffffff80202b38:	bf 1f 00 00 00       	mov    $0x1f,%edi
ffffffff80202b3d:	e8 96 fe ff ff       	callq  ffffffff802029d8 <write_char>
ffffffff80202b42:	48 89 eb             	mov    %rbp,%rbx
ffffffff80202b45:	e9 6e 01 00 00       	jmpq   ffffffff80202cb8 <printf+0x1dd>
ffffffff80202b4a:	48 8d 5d 01          	lea    0x1(%rbp),%rbx
ffffffff80202b4e:	0f b6 45 01          	movzbl 0x1(%rbp),%eax
ffffffff80202b52:	83 e8 63             	sub    $0x63,%eax
ffffffff80202b55:	3c 15                	cmp    $0x15,%al
ffffffff80202b57:	0f 87 5b 01 00 00    	ja     ffffffff80202cb8 <printf+0x1dd>
ffffffff80202b5d:	0f b6 c0             	movzbl %al,%eax
ffffffff80202b60:	49 63 04 84          	movslq (%r12,%rax,4),%rax
ffffffff80202b64:	4c 01 e0             	add    %r12,%rax
ffffffff80202b67:	ff e0                	jmpq   *%rax
ffffffff80202b69:	8b 44 24 08          	mov    0x8(%rsp),%eax
ffffffff80202b6d:	83 f8 30             	cmp    $0x30,%eax
ffffffff80202b70:	73 10                	jae    ffffffff80202b82 <printf+0xa7>
ffffffff80202b72:	89 c2                	mov    %eax,%edx
ffffffff80202b74:	48 03 54 24 18       	add    0x18(%rsp),%rdx
ffffffff80202b79:	83 c0 08             	add    $0x8,%eax
ffffffff80202b7c:	89 44 24 08          	mov    %eax,0x8(%rsp)
ffffffff80202b80:	eb 0e                	jmp    ffffffff80202b90 <printf+0xb5>
ffffffff80202b82:	48 8b 54 24 10       	mov    0x10(%rsp),%rdx
ffffffff80202b87:	48 8d 42 08          	lea    0x8(%rdx),%rax
ffffffff80202b8b:	48 89 44 24 10       	mov    %rax,0x10(%rsp)
ffffffff80202b90:	0f be 32             	movsbl (%rdx),%esi
ffffffff80202b93:	bf 1f 00 00 00       	mov    $0x1f,%edi
ffffffff80202b98:	e8 3b fe ff ff       	callq  ffffffff802029d8 <write_char>
ffffffff80202b9d:	e9 16 01 00 00       	jmpq   ffffffff80202cb8 <printf+0x1dd>
ffffffff80202ba2:	8b 44 24 08          	mov    0x8(%rsp),%eax
ffffffff80202ba6:	83 f8 30             	cmp    $0x30,%eax
ffffffff80202ba9:	73 10                	jae    ffffffff80202bbb <printf+0xe0>
ffffffff80202bab:	89 c2                	mov    %eax,%edx
ffffffff80202bad:	48 03 54 24 18       	add    0x18(%rsp),%rdx
ffffffff80202bb2:	83 c0 08             	add    $0x8,%eax
ffffffff80202bb5:	89 44 24 08          	mov    %eax,0x8(%rsp)
ffffffff80202bb9:	eb 0e                	jmp    ffffffff80202bc9 <printf+0xee>
ffffffff80202bbb:	48 8b 54 24 10       	mov    0x10(%rsp),%rdx
ffffffff80202bc0:	48 8d 42 08          	lea    0x8(%rdx),%rax
ffffffff80202bc4:	48 89 44 24 10       	mov    %rax,0x10(%rsp)
ffffffff80202bc9:	48 8b 32             	mov    (%rdx),%rsi
ffffffff80202bcc:	bf 1f 00 00 00       	mov    $0x1f,%edi
ffffffff80202bd1:	e8 7e fe ff ff       	callq  ffffffff80202a54 <write_string>
ffffffff80202bd6:	e9 dd 00 00 00       	jmpq   ffffffff80202cb8 <printf+0x1dd>
ffffffff80202bdb:	8b 44 24 08          	mov    0x8(%rsp),%eax
ffffffff80202bdf:	83 f8 30             	cmp    $0x30,%eax
ffffffff80202be2:	73 10                	jae    ffffffff80202bf4 <printf+0x119>
ffffffff80202be4:	89 c2                	mov    %eax,%edx
ffffffff80202be6:	48 03 54 24 18       	add    0x18(%rsp),%rdx
ffffffff80202beb:	83 c0 08             	add    $0x8,%eax
ffffffff80202bee:	89 44 24 08          	mov    %eax,0x8(%rsp)
ffffffff80202bf2:	eb 0e                	jmp    ffffffff80202c02 <printf+0x127>
ffffffff80202bf4:	48 8b 54 24 10       	mov    0x10(%rsp),%rdx
ffffffff80202bf9:	48 8d 42 08          	lea    0x8(%rdx),%rax
ffffffff80202bfd:	48 89 44 24 10       	mov    %rax,0x10(%rsp)
ffffffff80202c02:	48 63 3a             	movslq (%rdx),%rdi
ffffffff80202c05:	be 0a 00 00 00       	mov    $0xa,%esi
ffffffff80202c0a:	e8 09 fb ff ff       	callq  ffffffff80202718 <convert>
ffffffff80202c0f:	48 89 c6             	mov    %rax,%rsi
ffffffff80202c12:	bf 1f 00 00 00       	mov    $0x1f,%edi
ffffffff80202c17:	e8 38 fe ff ff       	callq  ffffffff80202a54 <write_string>
ffffffff80202c1c:	e9 97 00 00 00       	jmpq   ffffffff80202cb8 <printf+0x1dd>
ffffffff80202c21:	8b 44 24 08          	mov    0x8(%rsp),%eax
ffffffff80202c25:	83 f8 30             	cmp    $0x30,%eax
ffffffff80202c28:	73 10                	jae    ffffffff80202c3a <printf+0x15f>
ffffffff80202c2a:	89 c2                	mov    %eax,%edx
ffffffff80202c2c:	48 03 54 24 18       	add    0x18(%rsp),%rdx
ffffffff80202c31:	83 c0 08             	add    $0x8,%eax
ffffffff80202c34:	89 44 24 08          	mov    %eax,0x8(%rsp)
ffffffff80202c38:	eb 0e                	jmp    ffffffff80202c48 <printf+0x16d>
ffffffff80202c3a:	48 8b 54 24 10       	mov    0x10(%rsp),%rdx
ffffffff80202c3f:	48 8d 42 08          	lea    0x8(%rdx),%rax
ffffffff80202c43:	48 89 44 24 10       	mov    %rax,0x10(%rsp)
ffffffff80202c48:	8b 2a                	mov    (%rdx),%ebp
ffffffff80202c4a:	48 8d 35 07 53 00 00 	lea    21255(%rip),%rsi        # ffffffff80207f58 <__FUNCTION__.1376+0x28f8>
ffffffff80202c51:	bf 1f 00 00 00       	mov    $0x1f,%edi
ffffffff80202c56:	e8 f9 fd ff ff       	callq  ffffffff80202a54 <write_string>
ffffffff80202c5b:	48 63 fd             	movslq %ebp,%rdi
ffffffff80202c5e:	be 10 00 00 00       	mov    $0x10,%esi
ffffffff80202c63:	e8 b0 fa ff ff       	callq  ffffffff80202718 <convert>
ffffffff80202c68:	48 89 c6             	mov    %rax,%rsi
ffffffff80202c6b:	bf 1f 00 00 00       	mov    $0x1f,%edi
ffffffff80202c70:	e8 df fd ff ff       	callq  ffffffff80202a54 <write_string>
ffffffff80202c75:	eb 41                	jmp    ffffffff80202cb8 <printf+0x1dd>
ffffffff80202c77:	8b 44 24 08          	mov    0x8(%rsp),%eax
ffffffff80202c7b:	83 f8 30             	cmp    $0x30,%eax
ffffffff80202c7e:	73 10                	jae    ffffffff80202c90 <printf+0x1b5>
ffffffff80202c80:	89 c2                	mov    %eax,%edx
ffffffff80202c82:	48 03 54 24 18       	add    0x18(%rsp),%rdx
ffffffff80202c87:	83 c0 08             	add    $0x8,%eax
ffffffff80202c8a:	89 44 24 08          	mov    %eax,0x8(%rsp)
ffffffff80202c8e:	eb 0e                	jmp    ffffffff80202c9e <printf+0x1c3>
ffffffff80202c90:	48 8b 54 24 10       	mov    0x10(%rsp),%rdx
ffffffff80202c95:	48 8d 42 08          	lea    0x8(%rdx),%rax
ffffffff80202c99:	48 89 44 24 10       	mov    %rax,0x10(%rsp)
ffffffff80202c9e:	be 10 00 00 00       	mov    $0x10,%esi
ffffffff80202ca3:	48 8b 3a             	mov    (%rdx),%rdi
ffffffff80202ca6:	e8 6d fa ff ff       	callq  ffffffff80202718 <convert>
ffffffff80202cab:	48 89 c6             	mov    %rax,%rsi
ffffffff80202cae:	bf 1f 00 00 00       	mov    $0x1f,%edi
ffffffff80202cb3:	e8 9c fd ff ff       	callq  ffffffff80202a54 <write_string>
ffffffff80202cb8:	48 8d 6b 01          	lea    0x1(%rbx),%rbp
ffffffff80202cbc:	0f b6 73 01          	movzbl 0x1(%rbx),%esi
ffffffff80202cc0:	40 84 f6             	test   %sil,%sil
ffffffff80202cc3:	0f 85 65 fe ff ff    	jne    ffffffff80202b2e <printf+0x53>
ffffffff80202cc9:	b8 01 00 00 00       	mov    $0x1,%eax
ffffffff80202cce:	48 83 c4 50          	add    $0x50,%rsp
ffffffff80202cd2:	5b                   	pop    %rbx
ffffffff80202cd3:	5d                   	pop    %rbp
ffffffff80202cd4:	41 5c                	pop    %r12
ffffffff80202cd6:	c3                   	retq   

ffffffff80202cd7 <cls>:
ffffffff80202cd7:	48 c7 c0 00 00 10 80 	mov    $0xffffffff80100000,%rax
ffffffff80202cde:	c6 00 20             	movb   $0x20,(%rax)
ffffffff80202ce1:	48 8d 50 02          	lea    0x2(%rax),%rdx
ffffffff80202ce5:	c6 40 01 00          	movb   $0x0,0x1(%rax)
ffffffff80202ce9:	48 81 fa a0 0f 10 80 	cmp    $0xffffffff80100fa0,%rdx
ffffffff80202cf0:	74 05                	je     ffffffff80202cf7 <cls+0x20>
ffffffff80202cf2:	48 89 d0             	mov    %rdx,%rax
ffffffff80202cf5:	eb e7                	jmp    ffffffff80202cde <cls+0x7>
ffffffff80202cf7:	48 83 ec 08          	sub    $0x8,%rsp
ffffffff80202cfb:	48 8b 05 26 64 00 00 	mov    25638(%rip),%rax        # ffffffff80209128 <__FUNCTION__.1376+0x3ac8>
ffffffff80202d02:	48 c7 00 00 00 10 80 	movq   $0xffffffff80100000,(%rax)
ffffffff80202d09:	b8 00 00 00 00       	mov    $0x0,%eax
ffffffff80202d0e:	e8 c5 fb ff ff       	callq  ffffffff802028d8 <update_cursor>
ffffffff80202d13:	48 83 c4 08          	add    $0x8,%rsp
ffffffff80202d17:	c3                   	retq   

ffffffff80202d18 <strlen>:
ffffffff80202d18:	80 3f 00             	cmpb   $0x0,(%rdi)
ffffffff80202d1b:	74 11                	je     ffffffff80202d2e <strlen+0x16>
ffffffff80202d1d:	b8 00 00 00 00       	mov    $0x0,%eax
ffffffff80202d22:	ff c0                	inc    %eax
ffffffff80202d24:	48 ff c7             	inc    %rdi
ffffffff80202d27:	80 3f 00             	cmpb   $0x0,(%rdi)
ffffffff80202d2a:	75 f6                	jne    ffffffff80202d22 <strlen+0xa>
ffffffff80202d2c:	f3 c3                	repz retq 
ffffffff80202d2e:	b8 00 00 00 00       	mov    $0x0,%eax
ffffffff80202d33:	c3                   	retq   

ffffffff80202d34 <PANIC>:
ffffffff80202d34:	48 83 ec 08          	sub    $0x8,%rsp
ffffffff80202d38:	0f b7 c6             	movzwl %si,%eax
ffffffff80202d3b:	48 89 d1             	mov    %rdx,%rcx
ffffffff80202d3e:	89 c2                	mov    %eax,%edx
ffffffff80202d40:	48 89 fe             	mov    %rdi,%rsi
ffffffff80202d43:	48 8d 3d ee 2b 00 00 	lea    11246(%rip),%rdi        # ffffffff80205938 <__FUNCTION__.1376+0x2d8>
ffffffff80202d4a:	b8 00 00 00 00       	mov    $0x0,%eax
ffffffff80202d4f:	e8 87 fd ff ff       	callq  ffffffff80202adb <printf>
ffffffff80202d54:	48 8d 3d 6a 53 00 00 	lea    21354(%rip),%rdi        # ffffffff802080c5 <__FUNCTION__.1376+0x2a65>
ffffffff80202d5b:	b8 00 00 00 00       	mov    $0x0,%eax
ffffffff80202d60:	e8 76 fd ff ff       	callq  ffffffff80202adb <printf>
ffffffff80202d65:	48 8b 74 24 08       	mov    0x8(%rsp),%rsi
ffffffff80202d6a:	48 8d 3d 6e 53 00 00 	lea    21358(%rip),%rdi        # ffffffff802080df <__FUNCTION__.1376+0x2a7f>
ffffffff80202d71:	b8 00 00 00 00       	mov    $0x0,%eax
ffffffff80202d76:	e8 60 fd ff ff       	callq  ffffffff80202adb <printf>
ffffffff80202d7b:	eb fe                	jmp    ffffffff80202d7b <PANIC+0x47>

ffffffff80202d7d <SYS_TRACE>:
ffffffff80202d7d:	48 83 ec 08          	sub    $0x8,%rsp
ffffffff80202d81:	0f b7 f6             	movzwl %si,%esi
ffffffff80202d84:	48 89 d1             	mov    %rdx,%rcx
ffffffff80202d87:	89 f2                	mov    %esi,%edx
ffffffff80202d89:	48 89 fe             	mov    %rdi,%rsi
ffffffff80202d8c:	48 8d 3d cd 2b 00 00 	lea    11213(%rip),%rdi        # ffffffff80205960 <__FUNCTION__.1376+0x300>
ffffffff80202d93:	b8 00 00 00 00       	mov    $0x0,%eax
ffffffff80202d98:	e8 3e fd ff ff       	callq  ffffffff80202adb <printf>
ffffffff80202d9d:	48 83 c4 08          	add    $0x8,%rsp
ffffffff80202da1:	c3                   	retq   

ffffffff80202da2 <my_atoi>:
ffffffff80202da2:	0f b6 17             	movzbl (%rdi),%edx
ffffffff80202da5:	84 d2                	test   %dl,%dl
ffffffff80202da7:	74 2a                	je     ffffffff80202dd3 <my_atoi+0x31>
ffffffff80202da9:	b9 00 00 00 00       	mov    $0x0,%ecx
ffffffff80202dae:	b8 00 00 00 00       	mov    $0x0,%eax
ffffffff80202db3:	8d 34 c5 00 00 00 00 	lea    0x0(,%rax,8),%esi
ffffffff80202dba:	8d 04 46             	lea    (%rsi,%rax,2),%eax
ffffffff80202dbd:	0f be d2             	movsbl %dl,%edx
ffffffff80202dc0:	8d 44 10 d0          	lea    0xffffffffffffffd0(%rax,%rdx,1),%eax
ffffffff80202dc4:	ff c1                	inc    %ecx
ffffffff80202dc6:	0f b7 d1             	movzwl %cx,%edx
ffffffff80202dc9:	0f b6 14 17          	movzbl (%rdi,%rdx,1),%edx
ffffffff80202dcd:	84 d2                	test   %dl,%dl
ffffffff80202dcf:	75 e2                	jne    ffffffff80202db3 <my_atoi+0x11>
ffffffff80202dd1:	f3 c3                	repz retq 
ffffffff80202dd3:	b8 00 00 00 00       	mov    $0x0,%eax
ffffffff80202dd8:	c3                   	retq   

ffffffff80202dd9 <my_atool>:
ffffffff80202dd9:	0f b6 17             	movzbl (%rdi),%edx
ffffffff80202ddc:	84 d2                	test   %dl,%dl
ffffffff80202dde:	74 20                	je     ffffffff80202e00 <my_atool+0x27>
ffffffff80202de0:	b9 00 00 00 00       	mov    $0x0,%ecx
ffffffff80202de5:	b8 00 00 00 00       	mov    $0x0,%eax
ffffffff80202dea:	0f be d2             	movsbl %dl,%edx
ffffffff80202ded:	8d 44 c2 d0          	lea    0xffffffffffffffd0(%rdx,%rax,8),%eax
ffffffff80202df1:	ff c1                	inc    %ecx
ffffffff80202df3:	0f b7 d1             	movzwl %cx,%edx
ffffffff80202df6:	0f b6 14 17          	movzbl (%rdi,%rdx,1),%edx
ffffffff80202dfa:	84 d2                	test   %dl,%dl
ffffffff80202dfc:	75 ec                	jne    ffffffff80202dea <my_atool+0x11>
ffffffff80202dfe:	f3 c3                	repz retq 
ffffffff80202e00:	b8 00 00 00 00       	mov    $0x0,%eax
ffffffff80202e05:	c3                   	retq   

ffffffff80202e06 <strcmp>:
ffffffff80202e06:	41 54                	push   %r12
ffffffff80202e08:	55                   	push   %rbp
ffffffff80202e09:	53                   	push   %rbx
ffffffff80202e0a:	48 89 fb             	mov    %rdi,%rbx
ffffffff80202e0d:	48 89 f5             	mov    %rsi,%rbp
ffffffff80202e10:	e8 03 ff ff ff       	callq  ffffffff80202d18 <strlen>
ffffffff80202e15:	41 89 c4             	mov    %eax,%r12d
ffffffff80202e18:	48 89 ef             	mov    %rbp,%rdi
ffffffff80202e1b:	e8 f8 fe ff ff       	callq  ffffffff80202d18 <strlen>
ffffffff80202e20:	ba 01 00 00 00       	mov    $0x1,%edx
ffffffff80202e25:	41 39 c4             	cmp    %eax,%r12d
ffffffff80202e28:	75 39                	jne    ffffffff80202e63 <strcmp+0x5d>
ffffffff80202e2a:	0f b6 03             	movzbl (%rbx),%eax
ffffffff80202e2d:	84 c0                	test   %al,%al
ffffffff80202e2f:	74 26                	je     ffffffff80202e57 <strcmp+0x51>
ffffffff80202e31:	3a 45 00             	cmp    0x0(%rbp),%al
ffffffff80202e34:	75 2d                	jne    ffffffff80202e63 <strcmp+0x5d>
ffffffff80202e36:	b8 00 00 00 00       	mov    $0x0,%eax
ffffffff80202e3b:	eb 06                	jmp    ffffffff80202e43 <strcmp+0x3d>
ffffffff80202e3d:	3a 54 0d 00          	cmp    0x0(%rbp,%rcx,1),%dl
ffffffff80202e41:	75 1b                	jne    ffffffff80202e5e <strcmp+0x58>
ffffffff80202e43:	ff c0                	inc    %eax
ffffffff80202e45:	48 63 c8             	movslq %eax,%rcx
ffffffff80202e48:	0f b6 14 0b          	movzbl (%rbx,%rcx,1),%edx
ffffffff80202e4c:	84 d2                	test   %dl,%dl
ffffffff80202e4e:	75 ed                	jne    ffffffff80202e3d <strcmp+0x37>
ffffffff80202e50:	ba 00 00 00 00       	mov    $0x0,%edx
ffffffff80202e55:	eb 0c                	jmp    ffffffff80202e63 <strcmp+0x5d>
ffffffff80202e57:	ba 00 00 00 00       	mov    $0x0,%edx
ffffffff80202e5c:	eb 05                	jmp    ffffffff80202e63 <strcmp+0x5d>
ffffffff80202e5e:	ba 01 00 00 00       	mov    $0x1,%edx
ffffffff80202e63:	89 d0                	mov    %edx,%eax
ffffffff80202e65:	5b                   	pop    %rbx
ffffffff80202e66:	5d                   	pop    %rbp
ffffffff80202e67:	41 5c                	pop    %r12
ffffffff80202e69:	c3                   	retq   

ffffffff80202e6a <strchr>:
ffffffff80202e6a:	eb 07                	jmp    ffffffff80202e73 <strchr+0x9>
ffffffff80202e6c:	48 ff c7             	inc    %rdi
ffffffff80202e6f:	84 c0                	test   %al,%al
ffffffff80202e71:	74 0c                	je     ffffffff80202e7f <strchr+0x15>
ffffffff80202e73:	0f b6 07             	movzbl (%rdi),%eax
ffffffff80202e76:	40 38 f0             	cmp    %sil,%al
ffffffff80202e79:	75 f1                	jne    ffffffff80202e6c <strchr+0x2>
ffffffff80202e7b:	48 89 f8             	mov    %rdi,%rax
ffffffff80202e7e:	c3                   	retq   
ffffffff80202e7f:	b8 00 00 00 00       	mov    $0x0,%eax
ffffffff80202e84:	c3                   	retq   

ffffffff80202e85 <strcpsn>:
ffffffff80202e85:	41 54                	push   %r12
ffffffff80202e87:	55                   	push   %rbp
ffffffff80202e88:	53                   	push   %rbx
ffffffff80202e89:	48 89 fb             	mov    %rdi,%rbx
ffffffff80202e8c:	0f b6 17             	movzbl (%rdi),%edx
ffffffff80202e8f:	84 d2                	test   %dl,%dl
ffffffff80202e91:	74 26                	je     ffffffff80202eb9 <strcpsn+0x34>
ffffffff80202e93:	49 89 f4             	mov    %rsi,%r12
ffffffff80202e96:	bd 00 00 00 00       	mov    $0x0,%ebp
ffffffff80202e9b:	0f be f2             	movsbl %dl,%esi
ffffffff80202e9e:	4c 89 e7             	mov    %r12,%rdi
ffffffff80202ea1:	e8 c4 ff ff ff       	callq  ffffffff80202e6a <strchr>
ffffffff80202ea6:	48 85 c0             	test   %rax,%rax
ffffffff80202ea9:	75 13                	jne    ffffffff80202ebe <strcpsn+0x39>
ffffffff80202eab:	48 ff c3             	inc    %rbx
ffffffff80202eae:	ff c5                	inc    %ebp
ffffffff80202eb0:	0f b6 13             	movzbl (%rbx),%edx
ffffffff80202eb3:	84 d2                	test   %dl,%dl
ffffffff80202eb5:	75 e4                	jne    ffffffff80202e9b <strcpsn+0x16>
ffffffff80202eb7:	eb 05                	jmp    ffffffff80202ebe <strcpsn+0x39>
ffffffff80202eb9:	bd 00 00 00 00       	mov    $0x0,%ebp
ffffffff80202ebe:	89 e8                	mov    %ebp,%eax
ffffffff80202ec0:	5b                   	pop    %rbx
ffffffff80202ec1:	5d                   	pop    %rbp
ffffffff80202ec2:	41 5c                	pop    %r12
ffffffff80202ec4:	c3                   	retq   
ffffffff80202ec5:	00 00                	add    %al,(%rax)
	...

ffffffff80202ec8 <timer_handler>:
ffffffff80202ec8:	48 83 ec 08          	sub    $0x8,%rsp
ffffffff80202ecc:	48 8b 05 8d 62 00 00 	mov    25229(%rip),%rax        # ffffffff80209160 <__FUNCTION__.1376+0x3b00>
ffffffff80202ed3:	48 8b 00             	mov    (%rax),%rax
ffffffff80202ed6:	48 8b 0d 53 63 00 00 	mov    25427(%rip),%rcx        # ffffffff80209230 <__FUNCTION__.1376+0x3bd0>
ffffffff80202edd:	0f b7 39             	movzwl (%rcx),%edi
ffffffff80202ee0:	8d 57 01             	lea    0x1(%rdi),%edx
ffffffff80202ee3:	66 89 11             	mov    %dx,(%rcx)
ffffffff80202ee6:	89 d1                	mov    %edx,%ecx
ffffffff80202ee8:	66 c1 e9 02          	shr    $0x2,%cx
ffffffff80202eec:	0f b7 c9             	movzwl %cx,%ecx
ffffffff80202eef:	69 c9 7b 14 00 00    	imul   $0x147b,%ecx,%ecx
ffffffff80202ef5:	c1 e9 11             	shr    $0x11,%ecx
ffffffff80202ef8:	6b c9 64             	imul   $0x64,%ecx,%ecx
ffffffff80202efb:	66 39 ca             	cmp    %cx,%dx
ffffffff80202efe:	0f 85 6a 01 00 00    	jne    ffffffff8020306e <timer_handler+0x1a6>
ffffffff80202f04:	48 8b 15 35 61 00 00 	mov    24885(%rip),%rdx        # ffffffff80209040 <__FUNCTION__.1376+0x39e0>
ffffffff80202f0b:	0f b7 32             	movzwl (%rdx),%esi
ffffffff80202f0e:	ff c6                	inc    %esi
ffffffff80202f10:	66 89 32             	mov    %si,(%rdx)
ffffffff80202f13:	48 85 c0             	test   %rax,%rax
ffffffff80202f16:	74 29                	je     ffffffff80202f41 <timer_handler+0x79>
ffffffff80202f18:	48 8b 15 81 62 00 00 	mov    25217(%rip),%rdx        # ffffffff802091a0 <__FUNCTION__.1376+0x3b40>
ffffffff80202f1f:	48 8b 0a             	mov    (%rdx),%rcx
ffffffff80202f22:	48 39 c8             	cmp    %rcx,%rax
ffffffff80202f25:	74 1a                	je     ffffffff80202f41 <timer_handler+0x79>
ffffffff80202f27:	8b 50 30             	mov    0x30(%rax),%edx
ffffffff80202f2a:	85 d2                	test   %edx,%edx
ffffffff80202f2c:	7e 05                	jle    ffffffff80202f33 <timer_handler+0x6b>
ffffffff80202f2e:	ff ca                	dec    %edx
ffffffff80202f30:	89 50 30             	mov    %edx,0x30(%rax)
ffffffff80202f33:	48 8b 40 40          	mov    0x40(%rax),%rax
ffffffff80202f37:	48 85 c0             	test   %rax,%rax
ffffffff80202f3a:	74 05                	je     ffffffff80202f41 <timer_handler+0x79>
ffffffff80202f3c:	48 39 c8             	cmp    %rcx,%rax
ffffffff80202f3f:	75 e6                	jne    ffffffff80202f27 <timer_handler+0x5f>
ffffffff80202f41:	66 83 fe 3b          	cmp    $0x3b,%si
ffffffff80202f45:	76 37                	jbe    ffffffff80202f7e <timer_handler+0xb6>
ffffffff80202f47:	48 8b 15 72 62 00 00 	mov    25202(%rip),%rdx        # ffffffff802091c0 <__FUNCTION__.1376+0x3b60>
ffffffff80202f4e:	0f b7 02             	movzwl (%rdx),%eax
ffffffff80202f51:	ff c0                	inc    %eax
ffffffff80202f53:	66 89 02             	mov    %ax,(%rdx)
ffffffff80202f56:	48 8b 15 e3 60 00 00 	mov    24803(%rip),%rdx        # ffffffff80209040 <__FUNCTION__.1376+0x39e0>
ffffffff80202f5d:	66 c7 02 00 00       	movw   $0x0,(%rdx)
ffffffff80202f62:	66 83 f8 3b          	cmp    $0x3b,%ax
ffffffff80202f66:	76 16                	jbe    ffffffff80202f7e <timer_handler+0xb6>
ffffffff80202f68:	48 8b 05 51 62 00 00 	mov    25169(%rip),%rax        # ffffffff802091c0 <__FUNCTION__.1376+0x3b60>
ffffffff80202f6f:	66 c7 00 00 00       	movw   $0x0,(%rax)
ffffffff80202f74:	48 8b 05 15 63 00 00 	mov    25365(%rip),%rax        # ffffffff80209290 <__FUNCTION__.1376+0x3c30>
ffffffff80202f7b:	66 ff 00             	incw   (%rax)
ffffffff80202f7e:	48 8b 05 bb 60 00 00 	mov    24763(%rip),%rax        # ffffffff80209040 <__FUNCTION__.1376+0x39e0>
ffffffff80202f85:	0f b7 00             	movzwl (%rax),%eax
ffffffff80202f88:	0f b7 f0             	movzwl %ax,%esi
ffffffff80202f8b:	69 f6 cd cc 00 00    	imul   $0xcccd,%esi,%esi
ffffffff80202f91:	c1 ee 10             	shr    $0x10,%esi
ffffffff80202f94:	89 f7                	mov    %esi,%edi
ffffffff80202f96:	66 c1 ef 03          	shr    $0x3,%di
ffffffff80202f9a:	8d 14 fd 00 00 00 00 	lea    0x0(,%rdi,8),%edx
ffffffff80202fa1:	8d 3c 7a             	lea    (%rdx,%rdi,2),%edi
ffffffff80202fa4:	29 f8                	sub    %edi,%eax
ffffffff80202fa6:	89 c7                	mov    %eax,%edi
ffffffff80202fa8:	48 8b 05 89 62 00 00 	mov    25225(%rip),%rax        # ffffffff80209238 <__FUNCTION__.1376+0x3bd8>
ffffffff80202faf:	66 89 38             	mov    %di,(%rax)
ffffffff80202fb2:	66 c1 ee 03          	shr    $0x3,%si
ffffffff80202fb6:	48 8b 05 6b 62 00 00 	mov    25195(%rip),%rax        # ffffffff80209228 <__FUNCTION__.1376+0x3bc8>
ffffffff80202fbd:	66 89 30             	mov    %si,(%rax)
ffffffff80202fc0:	48 8b 05 f9 61 00 00 	mov    25081(%rip),%rax        # ffffffff802091c0 <__FUNCTION__.1376+0x3b60>
ffffffff80202fc7:	0f b7 00             	movzwl (%rax),%eax
ffffffff80202fca:	0f b7 c8             	movzwl %ax,%ecx
ffffffff80202fcd:	69 c9 cd cc 00 00    	imul   $0xcccd,%ecx,%ecx
ffffffff80202fd3:	c1 e9 10             	shr    $0x10,%ecx
ffffffff80202fd6:	89 ca                	mov    %ecx,%edx
ffffffff80202fd8:	66 c1 ea 03          	shr    $0x3,%dx
ffffffff80202fdc:	44 8d 04 d5 00 00 00 	lea    0x0(,%rdx,8),%r8d
ffffffff80202fe3:	00 
ffffffff80202fe4:	41 8d 14 50          	lea    (%r8,%rdx,2),%edx
ffffffff80202fe8:	29 d0                	sub    %edx,%eax
ffffffff80202fea:	89 c2                	mov    %eax,%edx
ffffffff80202fec:	48 8b 05 65 60 00 00 	mov    24677(%rip),%rax        # ffffffff80209058 <__FUNCTION__.1376+0x39f8>
ffffffff80202ff3:	66 89 10             	mov    %dx,(%rax)
ffffffff80202ff6:	66 c1 e9 03          	shr    $0x3,%cx
ffffffff80202ffa:	48 8b 05 67 60 00 00 	mov    24679(%rip),%rax        # ffffffff80209068 <__FUNCTION__.1376+0x3a08>
ffffffff80203001:	66 89 08             	mov    %cx,(%rax)
ffffffff80203004:	48 8b 05 85 62 00 00 	mov    25221(%rip),%rax        # ffffffff80209290 <__FUNCTION__.1376+0x3c30>
ffffffff8020300b:	0f b7 00             	movzwl (%rax),%eax
ffffffff8020300e:	44 0f b7 c8          	movzwl %ax,%r9d
ffffffff80203012:	45 69 c9 cd cc 00 00 	imul   $0xcccd,%r9d,%r9d
ffffffff80203019:	41 c1 e9 10          	shr    $0x10,%r9d
ffffffff8020301d:	45 89 c8             	mov    %r9d,%r8d
ffffffff80203020:	66 41 c1 e8 03       	shr    $0x3,%r8w
ffffffff80203025:	46 8d 14 c5 00 00 00 	lea    0x0(,%r8,8),%r10d
ffffffff8020302c:	00 
ffffffff8020302d:	47 8d 04 42          	lea    (%r10,%r8,2),%r8d
ffffffff80203031:	44 29 c0             	sub    %r8d,%eax
ffffffff80203034:	41 89 c0             	mov    %eax,%r8d
ffffffff80203037:	48 8b 05 6a 61 00 00 	mov    24938(%rip),%rax        # ffffffff802091a8 <__FUNCTION__.1376+0x3b48>
ffffffff8020303e:	66 44 89 00          	mov    %r8w,(%rax)
ffffffff80203042:	66 41 c1 e9 03       	shr    $0x3,%r9w
ffffffff80203047:	48 8b 05 3a 61 00 00 	mov    24890(%rip),%rax        # ffffffff80209188 <__FUNCTION__.1376+0x3b28>
ffffffff8020304e:	66 44 89 08          	mov    %r9w,(%rax)
ffffffff80203052:	0f b7 c9             	movzwl %cx,%ecx
ffffffff80203055:	0f b7 d2             	movzwl %dx,%edx
ffffffff80203058:	0f b7 f6             	movzwl %si,%esi
ffffffff8020305b:	0f b7 ff             	movzwl %di,%edi
ffffffff8020305e:	41 81 e1 ff 1f 00 00 	and    $0x1fff,%r9d
ffffffff80203065:	45 0f b7 c0          	movzwl %r8w,%r8d
ffffffff80203069:	e8 e2 f6 ff ff       	callq  ffffffff80202750 <write_time>
ffffffff8020306e:	48 83 c4 08          	add    $0x8,%rsp
ffffffff80203072:	c3                   	retq   

ffffffff80203073 <timer_setup>:
ffffffff80203073:	b8 dc 34 12 00       	mov    $0x1234dc,%eax
ffffffff80203078:	99                   	cltd   
ffffffff80203079:	f7 ff                	idiv   %edi
ffffffff8020307b:	89 c1                	mov    %eax,%ecx
ffffffff8020307d:	b8 36 00 00 00       	mov    $0x36,%eax
ffffffff80203082:	e6 43                	out    %al,$0x43
ffffffff80203084:	89 c8                	mov    %ecx,%eax
ffffffff80203086:	e6 40                	out    %al,$0x40
ffffffff80203088:	0f b6 c5             	movzbl %ch,%eax
ffffffff8020308b:	e6 40                	out    %al,$0x40
ffffffff8020308d:	c3                   	retq   

ffffffff8020308e <timer_install>:
ffffffff8020308e:	48 83 ec 08          	sub    $0x8,%rsp
ffffffff80203092:	bf 64 00 00 00       	mov    $0x64,%edi
ffffffff80203097:	e8 d7 ff ff ff       	callq  ffffffff80203073 <timer_setup>
ffffffff8020309c:	48 8b 35 cd 5f 00 00 	mov    24525(%rip),%rsi        # ffffffff80209070 <__FUNCTION__.1376+0x3a10>
ffffffff802030a3:	bf 00 00 00 00       	mov    $0x0,%edi
ffffffff802030a8:	e8 5b dd ff ff       	callq  ffffffff80200e08 <irq_install_handler>
ffffffff802030ad:	48 83 c4 08          	add    $0x8,%rsp
ffffffff802030b1:	c3                   	retq   
	...

ffffffff802030b4 <_x86_64_asm_lgdt>:
ffffffff802030b4:	0f 01 17             	lgdt   (%rdi)
ffffffff802030b7:	56                   	push   %rsi
ffffffff802030b8:	49 ba c6 30 20 80 ff 	mov    $0xffffffff802030c6,%r10
ffffffff802030bf:	ff ff ff 
ffffffff802030c2:	41 52                	push   %r10
ffffffff802030c4:	48 cb                	lretq  

ffffffff802030c6 <.done>:
ffffffff802030c6:	48 8e c2             	movq   %rdx,%es
ffffffff802030c9:	48 8e e2             	movq   %rdx,%fs
ffffffff802030cc:	48 8e ea             	movq   %rdx,%gs
ffffffff802030cf:	48 8e da             	movq   %rdx,%ds
ffffffff802030d2:	48 8e d2             	movq   %rdx,%ss
ffffffff802030d5:	c3                   	retq   
	...

ffffffff802030d8 <_x86_64_asm_lidt>:
ffffffff802030d8:	0f 01 1f             	lidt   (%rdi)
ffffffff802030db:	c3                   	retq   

ffffffff802030dc <_x86_64_asm_ltr>:
ffffffff802030dc:	0f 00 1f             	ltr    (%rdi)
ffffffff802030df:	c3                   	retq   

ffffffff802030e0 <_irq0>:
ffffffff802030e0:	fa                   	cli    
ffffffff802030e1:	50                   	push   %rax
ffffffff802030e2:	83 3c 25 90 a0 20 80 	cmpl   $0x1,0xffffffff8020a090
ffffffff802030e9:	01 
ffffffff802030ea:	75 11                	jne    ffffffff802030fd <.norm_interrupt1>
ffffffff802030ec:	48 8b 04 25 80 dc 20 	mov    0xffffffff8020dc80,%rax
ffffffff802030f3:	80 
ffffffff802030f4:	83 78 08 01          	cmpl   $0x1,0x8(%rax)
ffffffff802030f8:	74 03                	je     ffffffff802030fd <.norm_interrupt1>
ffffffff802030fa:	48 85 c0             	test   %rax,%rax

ffffffff802030fd <.norm_interrupt1>:
ffffffff802030fd:	58                   	pop    %rax
ffffffff802030fe:	6a 00                	pushq  $0x0
ffffffff80203100:	6a 32                	pushq  $0x32
ffffffff80203102:	eb 69                	jmp    ffffffff8020316d <irq_common_stub>

ffffffff80203104 <_irq1>:
ffffffff80203104:	fa                   	cli    
ffffffff80203105:	6a 00                	pushq  $0x0
ffffffff80203107:	6a 33                	pushq  $0x33
ffffffff80203109:	eb 62                	jmp    ffffffff8020316d <irq_common_stub>

ffffffff8020310b <_irq2>:
ffffffff8020310b:	fa                   	cli    
ffffffff8020310c:	6a 00                	pushq  $0x0
ffffffff8020310e:	6a 34                	pushq  $0x34
ffffffff80203110:	eb 5b                	jmp    ffffffff8020316d <irq_common_stub>

ffffffff80203112 <_irq3>:
ffffffff80203112:	fa                   	cli    
ffffffff80203113:	6a 00                	pushq  $0x0
ffffffff80203115:	6a 35                	pushq  $0x35
ffffffff80203117:	eb 54                	jmp    ffffffff8020316d <irq_common_stub>

ffffffff80203119 <_irq4>:
ffffffff80203119:	fa                   	cli    
ffffffff8020311a:	6a 00                	pushq  $0x0
ffffffff8020311c:	6a 36                	pushq  $0x36
ffffffff8020311e:	eb 4d                	jmp    ffffffff8020316d <irq_common_stub>

ffffffff80203120 <_irq5>:
ffffffff80203120:	fa                   	cli    
ffffffff80203121:	6a 00                	pushq  $0x0
ffffffff80203123:	6a 37                	pushq  $0x37
ffffffff80203125:	eb 46                	jmp    ffffffff8020316d <irq_common_stub>

ffffffff80203127 <_irq6>:
ffffffff80203127:	fa                   	cli    
ffffffff80203128:	6a 00                	pushq  $0x0
ffffffff8020312a:	6a 38                	pushq  $0x38
ffffffff8020312c:	eb 3f                	jmp    ffffffff8020316d <irq_common_stub>

ffffffff8020312e <_irq7>:
ffffffff8020312e:	fa                   	cli    
ffffffff8020312f:	6a 00                	pushq  $0x0
ffffffff80203131:	6a 39                	pushq  $0x39
ffffffff80203133:	eb 38                	jmp    ffffffff8020316d <irq_common_stub>

ffffffff80203135 <_irq8>:
ffffffff80203135:	fa                   	cli    
ffffffff80203136:	6a 00                	pushq  $0x0
ffffffff80203138:	6a 40                	pushq  $0x40
ffffffff8020313a:	eb 31                	jmp    ffffffff8020316d <irq_common_stub>

ffffffff8020313c <_irq9>:
ffffffff8020313c:	fa                   	cli    
ffffffff8020313d:	6a 00                	pushq  $0x0
ffffffff8020313f:	6a 41                	pushq  $0x41
ffffffff80203141:	eb 2a                	jmp    ffffffff8020316d <irq_common_stub>

ffffffff80203143 <_irq10>:
ffffffff80203143:	fa                   	cli    
ffffffff80203144:	6a 00                	pushq  $0x0
ffffffff80203146:	6a 42                	pushq  $0x42
ffffffff80203148:	eb 23                	jmp    ffffffff8020316d <irq_common_stub>

ffffffff8020314a <_irq11>:
ffffffff8020314a:	fa                   	cli    
ffffffff8020314b:	6a 00                	pushq  $0x0
ffffffff8020314d:	6a 43                	pushq  $0x43
ffffffff8020314f:	eb 1c                	jmp    ffffffff8020316d <irq_common_stub>

ffffffff80203151 <_irq12>:
ffffffff80203151:	fa                   	cli    
ffffffff80203152:	6a 00                	pushq  $0x0
ffffffff80203154:	6a 44                	pushq  $0x44
ffffffff80203156:	eb 15                	jmp    ffffffff8020316d <irq_common_stub>

ffffffff80203158 <_irq13>:
ffffffff80203158:	fa                   	cli    
ffffffff80203159:	6a 00                	pushq  $0x0
ffffffff8020315b:	6a 45                	pushq  $0x45
ffffffff8020315d:	eb 0e                	jmp    ffffffff8020316d <irq_common_stub>

ffffffff8020315f <_irq14>:
ffffffff8020315f:	fa                   	cli    
ffffffff80203160:	6a 00                	pushq  $0x0
ffffffff80203162:	6a 46                	pushq  $0x46
ffffffff80203164:	eb 07                	jmp    ffffffff8020316d <irq_common_stub>

ffffffff80203166 <_irq15>:
ffffffff80203166:	fa                   	cli    
ffffffff80203167:	6a 00                	pushq  $0x0
ffffffff80203169:	6a 36                	pushq  $0x36
ffffffff8020316b:	eb 00                	jmp    ffffffff8020316d <irq_common_stub>

ffffffff8020316d <irq_common_stub>:
ffffffff8020316d:	50                   	push   %rax
ffffffff8020316e:	53                   	push   %rbx
ffffffff8020316f:	51                   	push   %rcx
ffffffff80203170:	52                   	push   %rdx
ffffffff80203171:	55                   	push   %rbp
ffffffff80203172:	57                   	push   %rdi
ffffffff80203173:	56                   	push   %rsi
ffffffff80203174:	41 50                	push   %r8
ffffffff80203176:	41 51                	push   %r9
ffffffff80203178:	41 52                	push   %r10
ffffffff8020317a:	41 53                	push   %r11
ffffffff8020317c:	41 54                	push   %r12
ffffffff8020317e:	41 55                	push   %r13
ffffffff80203180:	41 56                	push   %r14
ffffffff80203182:	41 57                	push   %r15
ffffffff80203184:	48 89 e7             	mov    %rsp,%rdi
ffffffff80203187:	e8 99 de ff ff       	callq  ffffffff80201025 <irq_handler>
ffffffff8020318c:	48 8b 44 24 78       	mov    0x78(%rsp),%rax
ffffffff80203191:	48 83 f8 32          	cmp    $0x32,%rax
ffffffff80203195:	0f 85 b6 00 00 00    	jne    ffffffff80203251 <.restore_reg>
ffffffff8020319b:	83 3c 25 90 a0 20 80 	cmpl   $0x1,0xffffffff8020a090
ffffffff802031a2:	01 
ffffffff802031a3:	0f 85 a8 00 00 00    	jne    ffffffff80203251 <.restore_reg>
ffffffff802031a9:	48 8b 04 25 80 dc 20 	mov    0xffffffff8020dc80,%rax
ffffffff802031b0:	80 
ffffffff802031b1:	48 83 78 08 00       	cmpq   $0x0,0x8(%rax)
ffffffff802031b6:	74 11                	je     ffffffff802031c9 <.user_move_rsp>
ffffffff802031b8:	48 8d 04 24          	lea    (%rsp),%rax
ffffffff802031bc:	48 8b 3c 25 80 dc 20 	mov    0xffffffff8020dc80,%rdi
ffffffff802031c3:	80 
ffffffff802031c4:	48 89 07             	mov    %rax,(%rdi)
ffffffff802031c7:	eb 10                	jmp    ffffffff802031d9 <.move_rsp_normal>

ffffffff802031c9 <.user_move_rsp>:
ffffffff802031c9:	48 8d 04 24          	lea    (%rsp),%rax
ffffffff802031cd:	48 8b 3c 25 80 dc 20 	mov    0xffffffff8020dc80,%rdi
ffffffff802031d4:	80 
ffffffff802031d5:	48 89 47 10          	mov    %rax,0x10(%rdi)

ffffffff802031d9 <.move_rsp_normal>:
ffffffff802031d9:	48 8b 3c 25 80 dc 20 	mov    0xffffffff8020dc80,%rdi
ffffffff802031e0:	80 
ffffffff802031e1:	e8 6c ed ff ff       	callq  ffffffff80201f52 <runnable_kthread>
ffffffff802031e6:	e8 53 ea ff ff       	callq  ffffffff80201c3e <next_runnable_kthread>
ffffffff802031eb:	48 83 78 08 00       	cmpq   $0x0,0x8(%rax)
ffffffff802031f0:	75 13                	jne    ffffffff80203205 <.store_tss_norm1>
ffffffff802031f2:	48 8d 1c 25 c0 ef 20 	lea    0xffffffff8020efc0,%rbx
ffffffff802031f9:	80 
ffffffff802031fa:	48 8d 5b 04          	lea    0x4(%rbx),%rbx
ffffffff802031fe:	48 8b 48 28          	mov    0x28(%rax),%rcx
ffffffff80203202:	48 89 0b             	mov    %rcx,(%rbx)

ffffffff80203205 <.store_tss_norm1>:
ffffffff80203205:	48 89 04 25 80 dc 20 	mov    %rax,0xffffffff8020dc80
ffffffff8020320c:	80 
ffffffff8020320d:	48 8b 1c 25 80 dc 20 	mov    0xffffffff8020dc80,%rbx
ffffffff80203214:	80 
ffffffff80203215:	0f 20 d9             	mov    %cr3,%rcx
ffffffff80203218:	48 39 4b 18          	cmp    %rcx,0x18(%rbx)
ffffffff8020321c:	74 07                	je     ffffffff80203225 <.norm_cr3>
ffffffff8020321e:	48 8b 4b 18          	mov    0x18(%rbx),%rcx
ffffffff80203222:	0f 22 d9             	mov    %rcx,%cr3

ffffffff80203225 <.norm_cr3>:
ffffffff80203225:	83 78 08 00          	cmpl   $0x0,0x8(%rax)
ffffffff80203229:	74 05                	je     ffffffff80203230 <.user_change_rsp>
ffffffff8020322b:	48 8b 20             	mov    (%rax),%rsp
ffffffff8020322e:	eb 04                	jmp    ffffffff80203234 <.normal_change_rsp>

ffffffff80203230 <.user_change_rsp>:
ffffffff80203230:	48 8b 60 10          	mov    0x10(%rax),%rsp

ffffffff80203234 <.normal_change_rsp>:
ffffffff80203234:	41 5f                	pop    %r15
ffffffff80203236:	41 5e                	pop    %r14
ffffffff80203238:	41 5d                	pop    %r13
ffffffff8020323a:	41 5c                	pop    %r12
ffffffff8020323c:	41 5b                	pop    %r11
ffffffff8020323e:	41 5a                	pop    %r10
ffffffff80203240:	41 59                	pop    %r9
ffffffff80203242:	41 58                	pop    %r8
ffffffff80203244:	5e                   	pop    %rsi
ffffffff80203245:	5f                   	pop    %rdi
ffffffff80203246:	5d                   	pop    %rbp
ffffffff80203247:	5a                   	pop    %rdx
ffffffff80203248:	59                   	pop    %rcx
ffffffff80203249:	5b                   	pop    %rbx
ffffffff8020324a:	58                   	pop    %rax
ffffffff8020324b:	48 83 c4 10          	add    $0x10,%rsp
ffffffff8020324f:	48 cf                	iretq  

ffffffff80203251 <.restore_reg>:
ffffffff80203251:	41 5f                	pop    %r15
ffffffff80203253:	41 5e                	pop    %r14
ffffffff80203255:	41 5d                	pop    %r13
ffffffff80203257:	41 5c                	pop    %r12
ffffffff80203259:	41 5b                	pop    %r11
ffffffff8020325b:	41 5a                	pop    %r10
ffffffff8020325d:	41 59                	pop    %r9
ffffffff8020325f:	41 58                	pop    %r8
ffffffff80203261:	5e                   	pop    %rsi
ffffffff80203262:	5f                   	pop    %rdi
ffffffff80203263:	5d                   	pop    %rbp
ffffffff80203264:	5a                   	pop    %rdx
ffffffff80203265:	59                   	pop    %rcx
ffffffff80203266:	5b                   	pop    %rbx
ffffffff80203267:	58                   	pop    %rax
ffffffff80203268:	48 83 c4 10          	add    $0x10,%rsp
ffffffff8020326c:	48 cf                	iretq  
	...

ffffffff80203270 <_isr0>:
ffffffff80203270:	fa                   	cli    
ffffffff80203271:	6a 00                	pushq  $0x0
ffffffff80203273:	6a 00                	pushq  $0x0
ffffffff80203275:	eb 33                	jmp    ffffffff802032aa <isr_common_stub>

ffffffff80203277 <_isr1>:
ffffffff80203277:	fa                   	cli    
ffffffff80203278:	6a 00                	pushq  $0x0
ffffffff8020327a:	6a 01                	pushq  $0x1
ffffffff8020327c:	eb 2c                	jmp    ffffffff802032aa <isr_common_stub>

ffffffff8020327e <_isr13>:
ffffffff8020327e:	fa                   	cli    
ffffffff8020327f:	6a 00                	pushq  $0x0
ffffffff80203281:	6a 0d                	pushq  $0xd
ffffffff80203283:	eb 25                	jmp    ffffffff802032aa <isr_common_stub>

ffffffff80203285 <_isr14>:
ffffffff80203285:	fa                   	cli    
ffffffff80203286:	48 83 c4 08          	add    $0x8,%rsp
ffffffff8020328a:	6a 00                	pushq  $0x0
ffffffff8020328c:	6a 0e                	pushq  $0xe
ffffffff8020328e:	eb 1a                	jmp    ffffffff802032aa <isr_common_stub>

ffffffff80203290 <_isr80>:
ffffffff80203290:	fa                   	cli    

ffffffff80203291 <.exit_t>:
ffffffff80203291:	48 83 f8 01          	cmp    $0x1,%rax
ffffffff80203295:	75 0a                	jne    ffffffff802032a1 <.normal2>
ffffffff80203297:	e8 78 e0 ff ff       	callq  ffffffff80201314 <sys_exit>
ffffffff8020329c:	e8 f8 e9 ff ff       	callq  ffffffff80201c99 <Schedule>

ffffffff802032a1 <.normal2>:
ffffffff802032a1:	6a 00                	pushq  $0x0
ffffffff802032a3:	68 80 00 00 00       	pushq  $0x80
ffffffff802032a8:	eb 00                	jmp    ffffffff802032aa <isr_common_stub>

ffffffff802032aa <isr_common_stub>:
ffffffff802032aa:	50                   	push   %rax
ffffffff802032ab:	53                   	push   %rbx
ffffffff802032ac:	51                   	push   %rcx
ffffffff802032ad:	52                   	push   %rdx
ffffffff802032ae:	55                   	push   %rbp
ffffffff802032af:	57                   	push   %rdi
ffffffff802032b0:	56                   	push   %rsi
ffffffff802032b1:	41 50                	push   %r8
ffffffff802032b3:	41 51                	push   %r9
ffffffff802032b5:	41 52                	push   %r10
ffffffff802032b7:	41 53                	push   %r11
ffffffff802032b9:	41 54                	push   %r12
ffffffff802032bb:	41 55                	push   %r13
ffffffff802032bd:	41 56                	push   %r14
ffffffff802032bf:	41 57                	push   %r15
ffffffff802032c1:	48 89 e7             	mov    %rsp,%rdi
ffffffff802032c4:	e8 03 d8 ff ff       	callq  ffffffff80200acc <fault_handler>
ffffffff802032c9:	48 89 44 24 70       	mov    %rax,0x70(%rsp)
ffffffff802032ce:	83 3c 25 90 a0 20 80 	cmpl   $0x1,0xffffffff8020a090
ffffffff802032d5:	01 
ffffffff802032d6:	0f 85 a8 00 00 00    	jne    ffffffff80203384 <.normal>
ffffffff802032dc:	48 8b 04 25 80 dc 20 	mov    0xffffffff8020dc80,%rax
ffffffff802032e3:	80 
ffffffff802032e4:	48 83 78 08 00       	cmpq   $0x0,0x8(%rax)
ffffffff802032e9:	74 11                	je     ffffffff802032fc <.user_move_rsp_isr>
ffffffff802032eb:	48 8d 04 24          	lea    (%rsp),%rax
ffffffff802032ef:	48 8b 3c 25 80 dc 20 	mov    0xffffffff8020dc80,%rdi
ffffffff802032f6:	80 
ffffffff802032f7:	48 89 07             	mov    %rax,(%rdi)
ffffffff802032fa:	eb 10                	jmp    ffffffff8020330c <.move_rsp_normal_isr>

ffffffff802032fc <.user_move_rsp_isr>:
ffffffff802032fc:	48 8d 04 24          	lea    (%rsp),%rax
ffffffff80203300:	48 8b 3c 25 80 dc 20 	mov    0xffffffff8020dc80,%rdi
ffffffff80203307:	80 
ffffffff80203308:	48 89 47 10          	mov    %rax,0x10(%rdi)

ffffffff8020330c <.move_rsp_normal_isr>:
ffffffff8020330c:	48 8b 3c 25 80 dc 20 	mov    0xffffffff8020dc80,%rdi
ffffffff80203313:	80 
ffffffff80203314:	e8 39 ec ff ff       	callq  ffffffff80201f52 <runnable_kthread>
ffffffff80203319:	e8 20 e9 ff ff       	callq  ffffffff80201c3e <next_runnable_kthread>
ffffffff8020331e:	48 83 78 08 00       	cmpq   $0x0,0x8(%rax)
ffffffff80203323:	75 13                	jne    ffffffff80203338 <.store_tss_norm1_isr>
ffffffff80203325:	48 8d 1c 25 c0 ef 20 	lea    0xffffffff8020efc0,%rbx
ffffffff8020332c:	80 
ffffffff8020332d:	48 8d 5b 04          	lea    0x4(%rbx),%rbx
ffffffff80203331:	48 8b 48 28          	mov    0x28(%rax),%rcx
ffffffff80203335:	48 89 0b             	mov    %rcx,(%rbx)

ffffffff80203338 <.store_tss_norm1_isr>:
ffffffff80203338:	48 89 04 25 80 dc 20 	mov    %rax,0xffffffff8020dc80
ffffffff8020333f:	80 
ffffffff80203340:	48 8b 1c 25 80 dc 20 	mov    0xffffffff8020dc80,%rbx
ffffffff80203347:	80 
ffffffff80203348:	0f 20 d9             	mov    %cr3,%rcx
ffffffff8020334b:	48 39 4b 18          	cmp    %rcx,0x18(%rbx)
ffffffff8020334f:	74 07                	je     ffffffff80203358 <.norm_cr3_isr>
ffffffff80203351:	48 8b 4b 18          	mov    0x18(%rbx),%rcx
ffffffff80203355:	0f 22 d9             	mov    %rcx,%cr3

ffffffff80203358 <.norm_cr3_isr>:
ffffffff80203358:	83 78 08 00          	cmpl   $0x0,0x8(%rax)
ffffffff8020335c:	74 05                	je     ffffffff80203363 <.user_change_rsp>
ffffffff8020335e:	48 8b 20             	mov    (%rax),%rsp
ffffffff80203361:	eb 04                	jmp    ffffffff80203367 <.normal_change_rsp_isr>

ffffffff80203363 <.user_change_rsp>:
ffffffff80203363:	48 8b 60 10          	mov    0x10(%rax),%rsp

ffffffff80203367 <.normal_change_rsp_isr>:
ffffffff80203367:	41 5f                	pop    %r15
ffffffff80203369:	41 5e                	pop    %r14
ffffffff8020336b:	41 5d                	pop    %r13
ffffffff8020336d:	41 5c                	pop    %r12
ffffffff8020336f:	41 5b                	pop    %r11
ffffffff80203371:	41 5a                	pop    %r10
ffffffff80203373:	41 59                	pop    %r9
ffffffff80203375:	41 58                	pop    %r8
ffffffff80203377:	5e                   	pop    %rsi
ffffffff80203378:	5f                   	pop    %rdi
ffffffff80203379:	5d                   	pop    %rbp
ffffffff8020337a:	5a                   	pop    %rdx
ffffffff8020337b:	59                   	pop    %rcx
ffffffff8020337c:	5b                   	pop    %rbx
ffffffff8020337d:	58                   	pop    %rax
ffffffff8020337e:	48 83 c4 10          	add    $0x10,%rsp
ffffffff80203382:	48 cf                	iretq  

ffffffff80203384 <.normal>:
ffffffff80203384:	41 5f                	pop    %r15
ffffffff80203386:	41 5e                	pop    %r14
ffffffff80203388:	41 5d                	pop    %r13
ffffffff8020338a:	41 5c                	pop    %r12
ffffffff8020338c:	41 5b                	pop    %r11
ffffffff8020338e:	41 5a                	pop    %r10
ffffffff80203390:	41 59                	pop    %r9
ffffffff80203392:	41 58                	pop    %r8
ffffffff80203394:	5e                   	pop    %rsi
ffffffff80203395:	5f                   	pop    %rdi
ffffffff80203396:	5d                   	pop    %rbp
ffffffff80203397:	5a                   	pop    %rdx
ffffffff80203398:	59                   	pop    %rcx
ffffffff80203399:	5b                   	pop    %rbx
ffffffff8020339a:	58                   	pop    %rax
ffffffff8020339b:	48 83 c4 10          	add    $0x10,%rsp
ffffffff8020339f:	48 cf                	iretq  
ffffffff802033a1:	00 00                	add    %al,(%rax)
ffffffff802033a3:	00 00                	add    %al,(%rax)
ffffffff802033a5:	00 00                	add    %al,(%rax)
	...

ffffffff802033a8 <Switch_To_Thread>:
ffffffff802033a8:	50                   	push   %rax
ffffffff802033a9:	48 8d 04 25 80 dc 20 	lea    0xffffffff8020dc80,%rax
ffffffff802033b0:	80 
ffffffff802033b1:	48 8b 00             	mov    (%rax),%rax
ffffffff802033b4:	48 83 78 08 00       	cmpq   $0x0,0x8(%rax)
ffffffff802033b9:	74 0a                	je     ffffffff802033c5 <.user_ds>
ffffffff802033bb:	58                   	pop    %rax
ffffffff802033bc:	ff 34 25 d8 f2 20 80 	pushq  0xffffffff8020f2d8
ffffffff802033c3:	eb 08                	jmp    ffffffff802033cd <.resume>

ffffffff802033c5 <.user_ds>:
ffffffff802033c5:	58                   	pop    %rax
ffffffff802033c6:	ff 34 25 d0 f2 20 80 	pushq  0xffffffff8020f2d0

ffffffff802033cd <.resume>:
ffffffff802033cd:	54                   	push   %rsp
ffffffff802033ce:	50                   	push   %rax
ffffffff802033cf:	48 8b 44 24 18       	mov    0x18(%rsp),%rax
ffffffff802033d4:	48 89 44 24 f0       	mov    %rax,0xfffffffffffffff0(%rsp)
ffffffff802033d9:	48 89 e0             	mov    %rsp,%rax
ffffffff802033dc:	48 83 c4 08          	add    $0x8,%rsp
ffffffff802033e0:	9c                   	pushfq 
ffffffff802033e1:	50                   	push   %rax
ffffffff802033e2:	48 8d 04 25 80 dc 20 	lea    0xffffffff8020dc80,%rax
ffffffff802033e9:	80 
ffffffff802033ea:	48 8b 00             	mov    (%rax),%rax
ffffffff802033ed:	48 83 78 08 00       	cmpq   $0x0,0x8(%rax)
ffffffff802033f2:	74 0a                	je     ffffffff802033fe <.user_cs>
ffffffff802033f4:	58                   	pop    %rax
ffffffff802033f5:	ff 34 25 e0 f2 20 80 	pushq  0xffffffff8020f2e0
ffffffff802033fc:	eb 08                	jmp    ffffffff80203406 <.resume1>

ffffffff802033fe <.user_cs>:
ffffffff802033fe:	58                   	pop    %rax
ffffffff802033ff:	ff 34 25 c8 f2 20 80 	pushq  0xffffffff8020f2c8

ffffffff80203406 <.resume1>:
ffffffff80203406:	48 83 ec 08          	sub    $0x8,%rsp
ffffffff8020340a:	6a 00                	pushq  $0x0
ffffffff8020340c:	6a 00                	pushq  $0x0
ffffffff8020340e:	50                   	push   %rax
ffffffff8020340f:	53                   	push   %rbx
ffffffff80203410:	51                   	push   %rcx
ffffffff80203411:	52                   	push   %rdx
ffffffff80203412:	55                   	push   %rbp
ffffffff80203413:	57                   	push   %rdi
ffffffff80203414:	56                   	push   %rsi
ffffffff80203415:	41 50                	push   %r8
ffffffff80203417:	41 51                	push   %r9
ffffffff80203419:	41 52                	push   %r10
ffffffff8020341b:	41 53                	push   %r11
ffffffff8020341d:	41 54                	push   %r12
ffffffff8020341f:	41 55                	push   %r13
ffffffff80203421:	41 56                	push   %r14
ffffffff80203423:	41 57                	push   %r15
ffffffff80203425:	48 83 7f 08 00       	cmpq   $0x0,0x8(%rdi)
ffffffff8020342a:	75 15                	jne    ffffffff80203441 <.store_tss_norm>
ffffffff8020342c:	53                   	push   %rbx
ffffffff8020342d:	48 8d 04 25 c0 ef 20 	lea    0xffffffff8020efc0,%rax
ffffffff80203434:	80 
ffffffff80203435:	48 8d 40 04          	lea    0x4(%rax),%rax
ffffffff80203439:	48 8b 5f 28          	mov    0x28(%rdi),%rbx
ffffffff8020343d:	48 89 18             	mov    %rbx,(%rax)
ffffffff80203440:	5b                   	pop    %rbx

ffffffff80203441 <.store_tss_norm>:
ffffffff80203441:	48 8b 04 25 80 dc 20 	mov    0xffffffff8020dc80,%rax
ffffffff80203448:	80 
ffffffff80203449:	48 89 20             	mov    %rsp,(%rax)
ffffffff8020344c:	48 89 3c 25 80 dc 20 	mov    %rdi,0xffffffff8020dc80
ffffffff80203453:	80 
ffffffff80203454:	48 8b 1c 25 80 dc 20 	mov    0xffffffff8020dc80,%rbx
ffffffff8020345b:	80 
ffffffff8020345c:	0f 20 d9             	mov    %cr3,%rcx
ffffffff8020345f:	48 39 4b 18          	cmp    %rcx,0x18(%rbx)
ffffffff80203463:	74 07                	je     ffffffff8020346c <.norm_cr31>
ffffffff80203465:	48 8b 4b 18          	mov    0x18(%rbx),%rcx
ffffffff80203469:	0f 22 d9             	mov    %rcx,%cr3

ffffffff8020346c <.norm_cr31>:
ffffffff8020346c:	48 8b 1c 25 80 dc 20 	mov    0xffffffff8020dc80,%rbx
ffffffff80203473:	80 
ffffffff80203474:	83 7b 08 01          	cmpl   $0x1,0x8(%rbx)
ffffffff80203478:	74 06                	je     ffffffff80203480 <.kern_change_rsp_sched>
ffffffff8020347a:	48 8b 67 10          	mov    0x10(%rdi),%rsp
ffffffff8020347e:	eb 03                	jmp    ffffffff80203483 <.norm_move_rsp_sched>

ffffffff80203480 <.kern_change_rsp_sched>:
ffffffff80203480:	48 8b 27             	mov    (%rdi),%rsp

ffffffff80203483 <.norm_move_rsp_sched>:
ffffffff80203483:	41 5f                	pop    %r15
ffffffff80203485:	41 5e                	pop    %r14
ffffffff80203487:	41 5d                	pop    %r13
ffffffff80203489:	41 5c                	pop    %r12
ffffffff8020348b:	41 5b                	pop    %r11
ffffffff8020348d:	41 5a                	pop    %r10
ffffffff8020348f:	41 59                	pop    %r9
ffffffff80203491:	41 58                	pop    %r8
ffffffff80203493:	5e                   	pop    %rsi
ffffffff80203494:	5f                   	pop    %rdi
ffffffff80203495:	5d                   	pop    %rbp
ffffffff80203496:	5a                   	pop    %rdx
ffffffff80203497:	59                   	pop    %rcx
ffffffff80203498:	5b                   	pop    %rbx
ffffffff80203499:	58                   	pop    %rax
ffffffff8020349a:	48 83 c4 10          	add    $0x10,%rsp
ffffffff8020349e:	50                   	push   %rax
ffffffff8020349f:	48 8b 44 24 20       	mov    0x20(%rsp),%rax
ffffffff802034a4:	48 81 38 3b 01 40 00 	cmpq   $0x40013b,(%rax)
ffffffff802034ab:	75 03                	jne    ffffffff802034b0 <.ord1>
ffffffff802034ad:	48 85 db             	test   %rbx,%rbx

ffffffff802034b0 <.ord1>:
ffffffff802034b0:	58                   	pop    %rax
ffffffff802034b1:	48 cf                	iretq  

ffffffff802034b3 <get_flag_register>:
ffffffff802034b3:	9c                   	pushfq 
ffffffff802034b4:	58                   	pop    %rax
ffffffff802034b5:	c3                   	retq   
	...

ffffffff802034b8 <switch_to_user>:
ffffffff802034b8:	fa                   	cli    
ffffffff802034b9:	48 c7 c0 23 00 00 00 	mov    $0x23,%rax
ffffffff802034c0:	48 8e d8             	movq   %rax,%ds
ffffffff802034c3:	48 8e c0             	movq   %rax,%es
ffffffff802034c6:	48 8e e0             	movq   %rax,%fs
ffffffff802034c9:	48 8e e8             	movq   %rax,%gs
ffffffff802034cc:	48 8d 04 25 c0 ef 20 	lea    0xffffffff8020efc0,%rax
ffffffff802034d3:	80 
ffffffff802034d4:	48 8d 40 04          	lea    0x4(%rax),%rax
ffffffff802034d8:	48 89 20             	mov    %rsp,(%rax)
ffffffff802034db:	48 8b 04 25 80 dc 20 	mov    0xffffffff8020dc80,%rax
ffffffff802034e2:	80 
ffffffff802034e3:	6a 23                	pushq  $0x23
ffffffff802034e5:	ff 30                	pushq  (%rax)
ffffffff802034e7:	9c                   	pushfq 
ffffffff802034e8:	58                   	pop    %rax
ffffffff802034e9:	48 0d 00 02 00 00    	or     $0x200,%rax
ffffffff802034ef:	50                   	push   %rax
ffffffff802034f0:	6a 1b                	pushq  $0x1b
ffffffff802034f2:	48 8b 04 25 80 dc 20 	mov    0xffffffff8020dc80,%rax
ffffffff802034f9:	80 
ffffffff802034fa:	48 8d 40 08          	lea    0x8(%rax),%rax
ffffffff802034fe:	48 8b 00             	mov    (%rax),%rax
ffffffff80203501:	50                   	push   %rax
ffffffff80203502:	48 cf                	iretq  

ffffffff80203504 <get_total_blocks>:
ffffffff80203504:	48 8b 05 15 92 00 00 	mov    37397(%rip),%rax        # ffffffff8020c720 <mmgr_max_blocks>
ffffffff8020350b:	c3                   	retq   

ffffffff8020350c <get_used_blocks>:
ffffffff8020350c:	48 8b 05 15 92 00 00 	mov    37397(%rip),%rax        # ffffffff8020c728 <mmgr_used_blocks>
ffffffff80203513:	c3                   	retq   

ffffffff80203514 <get_total_usable_memory>:
ffffffff80203514:	48 8b 05 15 92 00 00 	mov    37397(%rip),%rax        # ffffffff8020c730 <mmgr_usable_memory_size>
ffffffff8020351b:	c3                   	retq   

ffffffff8020351c <get_total_usable_blocks>:
ffffffff8020351c:	53                   	push   %rbx
ffffffff8020351d:	b8 00 00 00 00       	mov    $0x0,%eax
ffffffff80203522:	e8 dd ff ff ff       	callq  ffffffff80203504 <get_total_blocks>
ffffffff80203527:	48 89 c3             	mov    %rax,%rbx
ffffffff8020352a:	b8 00 00 00 00       	mov    $0x0,%eax
ffffffff8020352f:	e8 d8 ff ff ff       	callq  ffffffff8020350c <get_used_blocks>
ffffffff80203534:	48 29 c3             	sub    %rax,%rbx
ffffffff80203537:	48 89 d8             	mov    %rbx,%rax
ffffffff8020353a:	5b                   	pop    %rbx
ffffffff8020353b:	c3                   	retq   

ffffffff8020353c <print_total_system_memory>:
ffffffff8020353c:	48 8b 05 ad 5c 00 00 	mov    23725(%rip),%rax        # ffffffff802091f0 <__FUNCTION__.1376+0x3b90>
ffffffff80203543:	48 83 38 00          	cmpq   $0x0,(%rax)
ffffffff80203547:	74 55                	je     ffffffff8020359e <print_total_system_memory+0x62>
ffffffff80203549:	55                   	push   %rbp
ffffffff8020354a:	53                   	push   %rbx
ffffffff8020354b:	48 83 ec 08          	sub    $0x8,%rsp
ffffffff8020354f:	bb 00 00 00 00       	mov    $0x0,%ebx
ffffffff80203554:	48 8b 2d b5 5a 00 00 	mov    23221(%rip),%rbp        # ffffffff80209010 <__FUNCTION__.1376+0x39b0>
ffffffff8020355b:	0f b7 c3             	movzwl %bx,%eax
ffffffff8020355e:	48 89 c2             	mov    %rax,%rdx
ffffffff80203561:	48 c1 e2 04          	shl    $0x4,%rdx
ffffffff80203565:	48 8d 04 82          	lea    (%rdx,%rax,4),%rax
ffffffff80203569:	48 01 e8             	add    %rbp,%rax
ffffffff8020356c:	48 8b 50 08          	mov    0x8(%rax),%rdx
ffffffff80203570:	8b 48 10             	mov    0x10(%rax),%ecx
ffffffff80203573:	48 8b 30             	mov    (%rax),%rsi
ffffffff80203576:	48 8d 3d 6e 4b 00 00 	lea    19310(%rip),%rdi        # ffffffff802080eb <__FUNCTION__.1376+0x2a8b>
ffffffff8020357d:	b8 00 00 00 00       	mov    $0x0,%eax
ffffffff80203582:	e8 54 f5 ff ff       	callq  ffffffff80202adb <printf>
ffffffff80203587:	ff c3                	inc    %ebx
ffffffff80203589:	0f b7 d3             	movzwl %bx,%edx
ffffffff8020358c:	48 8b 05 5d 5c 00 00 	mov    23645(%rip),%rax        # ffffffff802091f0 <__FUNCTION__.1376+0x3b90>
ffffffff80203593:	48 3b 10             	cmp    (%rax),%rdx
ffffffff80203596:	72 c3                	jb     ffffffff8020355b <print_total_system_memory+0x1f>
ffffffff80203598:	48 83 c4 08          	add    $0x8,%rsp
ffffffff8020359c:	5b                   	pop    %rbx
ffffffff8020359d:	5d                   	pop    %rbp
ffffffff8020359e:	f3 c3                	repz retq 

ffffffff802035a0 <print_usable_system_memory>:
ffffffff802035a0:	55                   	push   %rbp
ffffffff802035a1:	53                   	push   %rbx
ffffffff802035a2:	48 83 ec 08          	sub    $0x8,%rsp
ffffffff802035a6:	48 8b 05 eb 5c 00 00 	mov    23787(%rip),%rax        # ffffffff80209298 <__FUNCTION__.1376+0x3c38>
ffffffff802035ad:	48 83 38 00          	cmpq   $0x0,(%rax)
ffffffff802035b1:	74 49                	je     ffffffff802035fc <print_usable_system_memory+0x5c>
ffffffff802035b3:	bb 00 00 00 00       	mov    $0x0,%ebx
ffffffff802035b8:	48 8b 2d 89 5a 00 00 	mov    23177(%rip),%rbp        # ffffffff80209048 <__FUNCTION__.1376+0x39e8>
ffffffff802035bf:	0f b7 c3             	movzwl %bx,%eax
ffffffff802035c2:	48 89 c2             	mov    %rax,%rdx
ffffffff802035c5:	48 c1 e2 04          	shl    $0x4,%rdx
ffffffff802035c9:	48 8d 04 82          	lea    (%rdx,%rax,4),%rax
ffffffff802035cd:	48 01 e8             	add    %rbp,%rax
ffffffff802035d0:	48 8b 50 08          	mov    0x8(%rax),%rdx
ffffffff802035d4:	8b 48 10             	mov    0x10(%rax),%ecx
ffffffff802035d7:	48 8b 30             	mov    (%rax),%rsi
ffffffff802035da:	48 8d 3d 0a 4b 00 00 	lea    19210(%rip),%rdi        # ffffffff802080eb <__FUNCTION__.1376+0x2a8b>
ffffffff802035e1:	b8 00 00 00 00       	mov    $0x0,%eax
ffffffff802035e6:	e8 f0 f4 ff ff       	callq  ffffffff80202adb <printf>
ffffffff802035eb:	ff c3                	inc    %ebx
ffffffff802035ed:	0f b7 d3             	movzwl %bx,%edx
ffffffff802035f0:	48 8b 05 a1 5c 00 00 	mov    23713(%rip),%rax        # ffffffff80209298 <__FUNCTION__.1376+0x3c38>
ffffffff802035f7:	48 3b 10             	cmp    (%rax),%rdx
ffffffff802035fa:	72 c3                	jb     ffffffff802035bf <print_usable_system_memory+0x1f>
ffffffff802035fc:	b8 00 00 00 00       	mov    $0x0,%eax
ffffffff80203601:	e8 fe fe ff ff       	callq  ffffffff80203504 <get_total_blocks>
ffffffff80203606:	48 89 c3             	mov    %rax,%rbx
ffffffff80203609:	b8 00 00 00 00       	mov    $0x0,%eax
ffffffff8020360e:	e8 01 ff ff ff       	callq  ffffffff80203514 <get_total_usable_memory>
ffffffff80203613:	48 89 da             	mov    %rbx,%rdx
ffffffff80203616:	48 89 c6             	mov    %rax,%rsi
ffffffff80203619:	48 8d 3d 60 23 00 00 	lea    9056(%rip),%rdi        # ffffffff80205980 <__FUNCTION__.1376+0x320>
ffffffff80203620:	b8 00 00 00 00       	mov    $0x0,%eax
ffffffff80203625:	e8 b1 f4 ff ff       	callq  ffffffff80202adb <printf>
ffffffff8020362a:	48 83 c4 08          	add    $0x8,%rsp
ffffffff8020362e:	5b                   	pop    %rbx
ffffffff8020362f:	5d                   	pop    %rbp
ffffffff80203630:	c3                   	retq   

ffffffff80203631 <mmgr_set_block>:
ffffffff80203631:	8d 57 3f             	lea    0x3f(%rdi),%edx
ffffffff80203634:	85 ff                	test   %edi,%edi
ffffffff80203636:	0f 49 d7             	cmovns %edi,%edx
ffffffff80203639:	c1 fa 06             	sar    $0x6,%edx
ffffffff8020363c:	48 63 d2             	movslq %edx,%rdx
ffffffff8020363f:	48 8d 05 5a 6b 00 00 	lea    27482(%rip),%rax        # ffffffff8020a1a0 <mmgr_memory_map>
ffffffff80203646:	89 fe                	mov    %edi,%esi
ffffffff80203648:	c1 fe 1f             	sar    $0x1f,%esi
ffffffff8020364b:	c1 ee 1a             	shr    $0x1a,%esi
ffffffff8020364e:	8d 0c 37             	lea    (%rdi,%rsi,1),%ecx
ffffffff80203651:	83 e1 3f             	and    $0x3f,%ecx
ffffffff80203654:	29 f1                	sub    %esi,%ecx
ffffffff80203656:	be 01 00 00 00       	mov    $0x1,%esi
ffffffff8020365b:	d3 e6                	shl    %cl,%esi
ffffffff8020365d:	48 63 f6             	movslq %esi,%rsi
ffffffff80203660:	48 09 34 d0          	or     %rsi,(%rax,%rdx,8)
ffffffff80203664:	c3                   	retq   

ffffffff80203665 <mmgr_is_block_free>:
ffffffff80203665:	89 fa                	mov    %edi,%edx
ffffffff80203667:	c1 fa 1f             	sar    $0x1f,%edx
ffffffff8020366a:	c1 ea 1a             	shr    $0x1a,%edx
ffffffff8020366d:	8d 0c 17             	lea    (%rdi,%rdx,1),%ecx
ffffffff80203670:	83 e1 3f             	and    $0x3f,%ecx
ffffffff80203673:	29 d1                	sub    %edx,%ecx
ffffffff80203675:	b8 01 00 00 00       	mov    $0x1,%eax
ffffffff8020367a:	d3 e0                	shl    %cl,%eax
ffffffff8020367c:	8d 57 3f             	lea    0x3f(%rdi),%edx
ffffffff8020367f:	85 ff                	test   %edi,%edi
ffffffff80203681:	0f 48 fa             	cmovs  %edx,%edi
ffffffff80203684:	c1 ff 06             	sar    $0x6,%edi
ffffffff80203687:	48 63 ff             	movslq %edi,%rdi
ffffffff8020368a:	48 8d 15 0f 6b 00 00 	lea    27407(%rip),%rdx        # ffffffff8020a1a0 <mmgr_memory_map>
ffffffff80203691:	23 04 fa             	and    (%rdx,%rdi,8),%eax
ffffffff80203694:	c3                   	retq   

ffffffff80203695 <mmgr_unset_block>:
ffffffff80203695:	8d 57 3f             	lea    0x3f(%rdi),%edx
ffffffff80203698:	85 ff                	test   %edi,%edi
ffffffff8020369a:	0f 49 d7             	cmovns %edi,%edx
ffffffff8020369d:	c1 fa 06             	sar    $0x6,%edx
ffffffff802036a0:	48 63 d2             	movslq %edx,%rdx
ffffffff802036a3:	48 8d 05 f6 6a 00 00 	lea    27382(%rip),%rax        # ffffffff8020a1a0 <mmgr_memory_map>
ffffffff802036aa:	89 fe                	mov    %edi,%esi
ffffffff802036ac:	c1 fe 1f             	sar    $0x1f,%esi
ffffffff802036af:	c1 ee 1a             	shr    $0x1a,%esi
ffffffff802036b2:	8d 0c 37             	lea    (%rdi,%rsi,1),%ecx
ffffffff802036b5:	83 e1 3f             	and    $0x3f,%ecx
ffffffff802036b8:	29 f1                	sub    %esi,%ecx
ffffffff802036ba:	be fe ff ff ff       	mov    $0xfffffffe,%esi
ffffffff802036bf:	d3 c6                	rol    %cl,%esi
ffffffff802036c1:	48 63 f6             	movslq %esi,%rsi
ffffffff802036c4:	48 21 34 d0          	and    %rsi,(%rax,%rdx,8)
ffffffff802036c8:	c3                   	retq   

ffffffff802036c9 <mmgr_print_memory_status>:
ffffffff802036c9:	48 83 ec 08          	sub    $0x8,%rsp
ffffffff802036cd:	b8 00 00 00 00       	mov    $0x0,%eax
ffffffff802036d2:	e8 3d fe ff ff       	callq  ffffffff80203514 <get_total_usable_memory>
ffffffff802036d7:	48 89 c6             	mov    %rax,%rsi
ffffffff802036da:	48 8d 3d 25 4a 00 00 	lea    18981(%rip),%rdi        # ffffffff80208106 <__FUNCTION__.1376+0x2aa6>
ffffffff802036e1:	b8 00 00 00 00       	mov    $0x0,%eax
ffffffff802036e6:	e8 f0 f3 ff ff       	callq  ffffffff80202adb <printf>
ffffffff802036eb:	b8 00 00 00 00       	mov    $0x0,%eax
ffffffff802036f0:	e8 0f fe ff ff       	callq  ffffffff80203504 <get_total_blocks>
ffffffff802036f5:	48 89 c6             	mov    %rax,%rsi
ffffffff802036f8:	48 8d 3d 22 4a 00 00 	lea    18978(%rip),%rdi        # ffffffff80208121 <__FUNCTION__.1376+0x2ac1>
ffffffff802036ff:	b8 00 00 00 00       	mov    $0x0,%eax
ffffffff80203704:	e8 d2 f3 ff ff       	callq  ffffffff80202adb <printf>
ffffffff80203709:	b8 00 00 00 00       	mov    $0x0,%eax
ffffffff8020370e:	e8 f9 fd ff ff       	callq  ffffffff8020350c <get_used_blocks>
ffffffff80203713:	48 89 c6             	mov    %rax,%rsi
ffffffff80203716:	48 8d 3d b3 22 00 00 	lea    8883(%rip),%rdi        # ffffffff802059d0 <__FUNCTION__.1376+0x370>
ffffffff8020371d:	b8 00 00 00 00       	mov    $0x0,%eax
ffffffff80203722:	e8 b4 f3 ff ff       	callq  ffffffff80202adb <printf>
ffffffff80203727:	b8 00 00 00 00       	mov    $0x0,%eax
ffffffff8020372c:	e8 eb fd ff ff       	callq  ffffffff8020351c <get_total_usable_blocks>
ffffffff80203731:	48 89 c6             	mov    %rax,%rsi
ffffffff80203734:	48 8d 3d bd 22 00 00 	lea    8893(%rip),%rdi        # ffffffff802059f8 <__FUNCTION__.1376+0x398>
ffffffff8020373b:	b8 00 00 00 00       	mov    $0x0,%eax
ffffffff80203740:	e8 96 f3 ff ff       	callq  ffffffff80202adb <printf>
ffffffff80203745:	48 83 c4 08          	add    $0x8,%rsp
ffffffff80203749:	c3                   	retq   

ffffffff8020374a <mmgr_get_first_free>:
ffffffff8020374a:	55                   	push   %rbp
ffffffff8020374b:	53                   	push   %rbx
ffffffff8020374c:	48 83 ec 08          	sub    $0x8,%rsp
ffffffff80203750:	bb 00 00 00 00       	mov    $0x0,%ebx
ffffffff80203755:	eb 45                	jmp    ffffffff8020379c <mmgr_get_first_free+0x52>
ffffffff80203757:	48 8d 05 42 6a 00 00 	lea    27202(%rip),%rax        # ffffffff8020a1a0 <mmgr_memory_map>
ffffffff8020375e:	48 8b 14 d8          	mov    (%rax,%rbx,8),%rdx
ffffffff80203762:	48 83 fa ff          	cmp    $0xffffffffffffffff,%rdx
ffffffff80203766:	74 31                	je     ffffffff80203799 <mmgr_get_first_free+0x4f>
ffffffff80203768:	f6 c2 01             	test   $0x1,%dl
ffffffff8020376b:	74 17                	je     ffffffff80203784 <mmgr_get_first_free+0x3a>
ffffffff8020376d:	b9 01 00 00 00       	mov    $0x1,%ecx
ffffffff80203772:	be 01 00 00 00       	mov    $0x1,%esi
ffffffff80203777:	89 f0                	mov    %esi,%eax
ffffffff80203779:	d3 e0                	shl    %cl,%eax
ffffffff8020377b:	48 98                	cltq   
ffffffff8020377d:	48 85 c2             	test   %rax,%rdx
ffffffff80203780:	75 10                	jne    ffffffff80203792 <mmgr_get_first_free+0x48>
ffffffff80203782:	eb 05                	jmp    ffffffff80203789 <mmgr_get_first_free+0x3f>
ffffffff80203784:	b9 00 00 00 00       	mov    $0x0,%ecx
ffffffff80203789:	89 e8                	mov    %ebp,%eax
ffffffff8020378b:	c1 e0 06             	shl    $0x6,%eax
ffffffff8020378e:	01 c8                	add    %ecx,%eax
ffffffff80203790:	eb 24                	jmp    ffffffff802037b6 <mmgr_get_first_free+0x6c>
ffffffff80203792:	ff c1                	inc    %ecx
ffffffff80203794:	83 f9 40             	cmp    $0x40,%ecx
ffffffff80203797:	75 de                	jne    ffffffff80203777 <mmgr_get_first_free+0x2d>
ffffffff80203799:	48 ff c3             	inc    %rbx
ffffffff8020379c:	89 dd                	mov    %ebx,%ebp
ffffffff8020379e:	b8 00 00 00 00       	mov    $0x0,%eax
ffffffff802037a3:	e8 5c fd ff ff       	callq  ffffffff80203504 <get_total_blocks>
ffffffff802037a8:	48 c1 e8 06          	shr    $0x6,%rax
ffffffff802037ac:	48 39 c3             	cmp    %rax,%rbx
ffffffff802037af:	72 a6                	jb     ffffffff80203757 <mmgr_get_first_free+0xd>
ffffffff802037b1:	b8 ff ff ff ff       	mov    $0xffffffff,%eax
ffffffff802037b6:	48 83 c4 08          	add    $0x8,%rsp
ffffffff802037ba:	5b                   	pop    %rbx
ffffffff802037bb:	5d                   	pop    %rbp
ffffffff802037bc:	c3                   	retq   

ffffffff802037bd <mmgr_get_first_range_free>:
ffffffff802037bd:	41 56                	push   %r14
ffffffff802037bf:	41 55                	push   %r13
ffffffff802037c1:	41 54                	push   %r12
ffffffff802037c3:	55                   	push   %rbp
ffffffff802037c4:	53                   	push   %rbx
ffffffff802037c5:	89 fd                	mov    %edi,%ebp
ffffffff802037c7:	41 bc 00 00 00 00    	mov    $0x0,%r12d
ffffffff802037cd:	bb 01 00 00 00       	mov    $0x1,%ebx
ffffffff802037d2:	e9 e2 00 00 00       	jmpq   ffffffff802038b9 <mmgr_get_first_range_free+0xfc>
ffffffff802037d7:	48 8d 05 c2 69 00 00 	lea    27074(%rip),%rax        # ffffffff8020a1a0 <mmgr_memory_map>
ffffffff802037de:	4e 8b 2c e0          	mov    (%rax,%r12,8),%r13
ffffffff802037e2:	49 83 fd ff          	cmp    $0xffffffffffffffff,%r13
ffffffff802037e6:	0f 84 ca 00 00 00    	je     ffffffff802038b6 <mmgr_get_first_range_free+0xf9>
ffffffff802037ec:	45 89 e6             	mov    %r12d,%r14d
ffffffff802037ef:	41 c1 e6 06          	shl    $0x6,%r14d
ffffffff802037f3:	41 bb 00 00 00 00    	mov    $0x0,%r11d
ffffffff802037f9:	41 89 ea             	mov    %ebp,%r10d
ffffffff802037fc:	89 d8                	mov    %ebx,%eax
ffffffff802037fe:	44 89 d9             	mov    %r11d,%ecx
ffffffff80203801:	d3 e0                	shl    %cl,%eax
ffffffff80203803:	48 98                	cltq   
ffffffff80203805:	49 85 c5             	test   %rax,%r13
ffffffff80203808:	0f 85 9b 00 00 00    	jne    ffffffff802038a9 <mmgr_get_first_range_free+0xec>
ffffffff8020380e:	47 8d 0c 1e          	lea    (%r14,%r11,1),%r9d
ffffffff80203812:	85 ed                	test   %ebp,%ebp
ffffffff80203814:	0f 84 8f 00 00 00    	je     ffffffff802038a9 <mmgr_get_first_range_free+0xec>
ffffffff8020381a:	44 89 c8             	mov    %r9d,%eax
ffffffff8020381d:	44 89 ca             	mov    %r9d,%edx
ffffffff80203820:	c1 fa 1f             	sar    $0x1f,%edx
ffffffff80203823:	c1 ea 1a             	shr    $0x1a,%edx
ffffffff80203826:	41 8d 0c 11          	lea    (%r9,%rdx,1),%ecx
ffffffff8020382a:	83 e1 3f             	and    $0x3f,%ecx
ffffffff8020382d:	29 d1                	sub    %edx,%ecx
ffffffff8020382f:	89 de                	mov    %ebx,%esi
ffffffff80203831:	d3 e6                	shl    %cl,%esi
ffffffff80203833:	89 f1                	mov    %esi,%ecx
ffffffff80203835:	41 8d 71 3f          	lea    0x3f(%r9),%esi
ffffffff80203839:	45 85 c9             	test   %r9d,%r9d
ffffffff8020383c:	41 0f 49 f1          	cmovns %r9d,%esi
ffffffff80203840:	c1 fe 06             	sar    $0x6,%esi
ffffffff80203843:	48 63 f6             	movslq %esi,%rsi
ffffffff80203846:	48 8d 15 53 69 00 00 	lea    26963(%rip),%rdx        # ffffffff8020a1a0 <mmgr_memory_map>
ffffffff8020384d:	85 0c f2             	test   %ecx,(%rdx,%rsi,8)
ffffffff80203850:	75 49                	jne    ffffffff8020389b <mmgr_get_first_range_free+0xde>
ffffffff80203852:	83 fd 01             	cmp    $0x1,%ebp
ffffffff80203855:	75 4e                	jne    ffffffff802038a5 <mmgr_get_first_range_free+0xe8>
ffffffff80203857:	eb 7c                	jmp    ffffffff802038d5 <mmgr_get_first_range_free+0x118>
ffffffff80203859:	42 8d 14 0e          	lea    (%rsi,%r9,1),%edx
ffffffff8020385d:	41 89 d0             	mov    %edx,%r8d
ffffffff80203860:	41 c1 f8 1f          	sar    $0x1f,%r8d
ffffffff80203864:	41 c1 e8 1a          	shr    $0x1a,%r8d
ffffffff80203868:	42 8d 0c 02          	lea    (%rdx,%r8,1),%ecx
ffffffff8020386c:	83 e1 3f             	and    $0x3f,%ecx
ffffffff8020386f:	44 29 c1             	sub    %r8d,%ecx
ffffffff80203872:	89 df                	mov    %ebx,%edi
ffffffff80203874:	d3 e7                	shl    %cl,%edi
ffffffff80203876:	89 f9                	mov    %edi,%ecx
ffffffff80203878:	8d 7a 3f             	lea    0x3f(%rdx),%edi
ffffffff8020387b:	85 d2                	test   %edx,%edx
ffffffff8020387d:	0f 48 d7             	cmovs  %edi,%edx
ffffffff80203880:	c1 fa 06             	sar    $0x6,%edx
ffffffff80203883:	48 63 d2             	movslq %edx,%rdx
ffffffff80203886:	48 8d 3d 13 69 00 00 	lea    26899(%rip),%rdi        # ffffffff8020a1a0 <mmgr_memory_map>
ffffffff8020388d:	85 0c d7             	test   %ecx,(%rdi,%rdx,8)
ffffffff80203890:	75 0e                	jne    ffffffff802038a0 <mmgr_get_first_range_free+0xe3>
ffffffff80203892:	ff c6                	inc    %esi
ffffffff80203894:	44 39 d6             	cmp    %r10d,%esi
ffffffff80203897:	75 c0                	jne    ffffffff80203859 <mmgr_get_first_range_free+0x9c>
ffffffff80203899:	eb 3a                	jmp    ffffffff802038d5 <mmgr_get_first_range_free+0x118>
ffffffff8020389b:	be 00 00 00 00       	mov    $0x0,%esi
ffffffff802038a0:	41 01 f3             	add    %esi,%r11d
ffffffff802038a3:	eb 04                	jmp    ffffffff802038a9 <mmgr_get_first_range_free+0xec>
ffffffff802038a5:	89 de                	mov    %ebx,%esi
ffffffff802038a7:	eb b0                	jmp    ffffffff80203859 <mmgr_get_first_range_free+0x9c>
ffffffff802038a9:	41 ff c3             	inc    %r11d
ffffffff802038ac:	41 83 fb 3f          	cmp    $0x3f,%r11d
ffffffff802038b0:	0f 86 46 ff ff ff    	jbe    ffffffff802037fc <mmgr_get_first_range_free+0x3f>
ffffffff802038b6:	49 ff c4             	inc    %r12
ffffffff802038b9:	b8 00 00 00 00       	mov    $0x0,%eax
ffffffff802038be:	e8 41 fc ff ff       	callq  ffffffff80203504 <get_total_blocks>
ffffffff802038c3:	48 c1 e8 06          	shr    $0x6,%rax
ffffffff802038c7:	49 39 c4             	cmp    %rax,%r12
ffffffff802038ca:	0f 82 07 ff ff ff    	jb     ffffffff802037d7 <mmgr_get_first_range_free+0x1a>
ffffffff802038d0:	b8 ff ff ff ff       	mov    $0xffffffff,%eax
ffffffff802038d5:	5b                   	pop    %rbx
ffffffff802038d6:	5d                   	pop    %rbp
ffffffff802038d7:	41 5c                	pop    %r12
ffffffff802038d9:	41 5d                	pop    %r13
ffffffff802038db:	41 5e                	pop    %r14
ffffffff802038dd:	c3                   	retq   

ffffffff802038de <mmgr_alloc_block>:
ffffffff802038de:	48 83 ec 08          	sub    $0x8,%rsp
ffffffff802038e2:	b8 00 00 00 00       	mov    $0x0,%eax
ffffffff802038e7:	e8 30 fc ff ff       	callq  ffffffff8020351c <get_total_usable_blocks>
ffffffff802038ec:	48 85 c0             	test   %rax,%rax
ffffffff802038ef:	75 13                	jne    ffffffff80203904 <mmgr_alloc_block+0x26>
ffffffff802038f1:	48 8d 3d 28 21 00 00 	lea    8488(%rip),%rdi        # ffffffff80205a20 <__FUNCTION__.1376+0x3c0>
ffffffff802038f8:	e8 de f1 ff ff       	callq  ffffffff80202adb <printf>
ffffffff802038fd:	b8 00 00 00 00       	mov    $0x0,%eax
ffffffff80203902:	eb 73                	jmp    ffffffff80203977 <mmgr_alloc_block+0x99>
ffffffff80203904:	b8 00 00 00 00       	mov    $0x0,%eax
ffffffff80203909:	e8 3c fe ff ff       	callq  ffffffff8020374a <mmgr_get_first_free>
ffffffff8020390e:	48 63 d0             	movslq %eax,%rdx
ffffffff80203911:	48 83 fa ff          	cmp    $0xffffffffffffffff,%rdx
ffffffff80203915:	75 18                	jne    ffffffff8020392f <mmgr_alloc_block+0x51>
ffffffff80203917:	48 8d 3d 32 21 00 00 	lea    8498(%rip),%rdi        # ffffffff80205a50 <__FUNCTION__.1376+0x3f0>
ffffffff8020391e:	b8 00 00 00 00       	mov    $0x0,%eax
ffffffff80203923:	e8 b3 f1 ff ff       	callq  ffffffff80202adb <printf>
ffffffff80203928:	b8 00 00 00 00       	mov    $0x0,%eax
ffffffff8020392d:	eb 48                	jmp    ffffffff80203977 <mmgr_alloc_block+0x99>
ffffffff8020392f:	8d 78 3f             	lea    0x3f(%rax),%edi
ffffffff80203932:	85 c0                	test   %eax,%eax
ffffffff80203934:	0f 49 f8             	cmovns %eax,%edi
ffffffff80203937:	c1 ff 06             	sar    $0x6,%edi
ffffffff8020393a:	48 63 ff             	movslq %edi,%rdi
ffffffff8020393d:	48 8d 35 5c 68 00 00 	lea    26716(%rip),%rsi        # ffffffff8020a1a0 <mmgr_memory_map>
ffffffff80203944:	41 89 c0             	mov    %eax,%r8d
ffffffff80203947:	41 c1 f8 1f          	sar    $0x1f,%r8d
ffffffff8020394b:	41 c1 e8 1a          	shr    $0x1a,%r8d
ffffffff8020394f:	42 8d 0c 00          	lea    (%rax,%r8,1),%ecx
ffffffff80203953:	83 e1 3f             	and    $0x3f,%ecx
ffffffff80203956:	44 29 c1             	sub    %r8d,%ecx
ffffffff80203959:	41 b8 01 00 00 00    	mov    $0x1,%r8d
ffffffff8020395f:	41 d3 e0             	shl    %cl,%r8d
ffffffff80203962:	4d 63 c0             	movslq %r8d,%r8
ffffffff80203965:	4c 09 04 fe          	or     %r8,(%rsi,%rdi,8)
ffffffff80203969:	48 ff 05 b8 8d 00 00 	incq   36280(%rip)        # ffffffff8020c728 <mmgr_used_blocks>
ffffffff80203970:	48 89 d0             	mov    %rdx,%rax
ffffffff80203973:	48 c1 e0 0c          	shl    $0xc,%rax
ffffffff80203977:	48 83 c4 08          	add    $0x8,%rsp
ffffffff8020397b:	c3                   	retq   

ffffffff8020397c <mmgr_alloc_size_blocks>:
ffffffff8020397c:	55                   	push   %rbp
ffffffff8020397d:	53                   	push   %rbx
ffffffff8020397e:	48 83 ec 08          	sub    $0x8,%rsp
ffffffff80203982:	89 fd                	mov    %edi,%ebp
ffffffff80203984:	b8 00 00 00 00       	mov    $0x0,%eax
ffffffff80203989:	e8 8e fb ff ff       	callq  ffffffff8020351c <get_total_usable_blocks>
ffffffff8020398e:	48 63 dd             	movslq %ebp,%rbx
ffffffff80203991:	48 39 d8             	cmp    %rbx,%rax
ffffffff80203994:	77 1b                	ja     ffffffff802039b1 <mmgr_alloc_size_blocks+0x35>
ffffffff80203996:	48 8d 3d 83 20 00 00 	lea    8323(%rip),%rdi        # ffffffff80205a20 <__FUNCTION__.1376+0x3c0>
ffffffff8020399d:	b8 00 00 00 00       	mov    $0x0,%eax
ffffffff802039a2:	e8 34 f1 ff ff       	callq  ffffffff80202adb <printf>
ffffffff802039a7:	b8 00 00 00 00       	mov    $0x0,%eax
ffffffff802039ac:	e9 86 00 00 00       	jmpq   ffffffff80203a37 <mmgr_alloc_size_blocks+0xbb>
ffffffff802039b1:	89 ef                	mov    %ebp,%edi
ffffffff802039b3:	e8 05 fe ff ff       	callq  ffffffff802037bd <mmgr_get_first_range_free>
ffffffff802039b8:	4c 63 d8             	movslq %eax,%r11
ffffffff802039bb:	49 83 fb ff          	cmp    $0xffffffffffffffff,%r11
ffffffff802039bf:	74 13                	je     ffffffff802039d4 <mmgr_alloc_size_blocks+0x58>
ffffffff802039c1:	89 c2                	mov    %eax,%edx
ffffffff802039c3:	44 8d 54 05 00       	lea    0x0(%rbp,%rax,1),%r10d
ffffffff802039c8:	41 b9 01 00 00 00    	mov    $0x1,%r9d
ffffffff802039ce:	85 ed                	test   %ebp,%ebp
ffffffff802039d0:	7f 1a                	jg     ffffffff802039ec <mmgr_alloc_size_blocks+0x70>
ffffffff802039d2:	eb 55                	jmp    ffffffff80203a29 <mmgr_alloc_size_blocks+0xad>
ffffffff802039d4:	48 8d 3d 75 20 00 00 	lea    8309(%rip),%rdi        # ffffffff80205a50 <__FUNCTION__.1376+0x3f0>
ffffffff802039db:	b8 00 00 00 00       	mov    $0x0,%eax
ffffffff802039e0:	e8 f6 f0 ff ff       	callq  ffffffff80202adb <printf>
ffffffff802039e5:	b8 00 00 00 00       	mov    $0x0,%eax
ffffffff802039ea:	eb 4b                	jmp    ffffffff80203a37 <mmgr_alloc_size_blocks+0xbb>
ffffffff802039ec:	8d 7a 3f             	lea    0x3f(%rdx),%edi
ffffffff802039ef:	85 d2                	test   %edx,%edx
ffffffff802039f1:	0f 49 fa             	cmovns %edx,%edi
ffffffff802039f4:	c1 ff 06             	sar    $0x6,%edi
ffffffff802039f7:	48 63 ff             	movslq %edi,%rdi
ffffffff802039fa:	48 8d 35 9f 67 00 00 	lea    26527(%rip),%rsi        # ffffffff8020a1a0 <mmgr_memory_map>
ffffffff80203a01:	41 89 d0             	mov    %edx,%r8d
ffffffff80203a04:	41 c1 f8 1f          	sar    $0x1f,%r8d
ffffffff80203a08:	41 c1 e8 1a          	shr    $0x1a,%r8d
ffffffff80203a0c:	42 8d 0c 02          	lea    (%rdx,%r8,1),%ecx
ffffffff80203a10:	83 e1 3f             	and    $0x3f,%ecx
ffffffff80203a13:	44 29 c1             	sub    %r8d,%ecx
ffffffff80203a16:	44 89 c8             	mov    %r9d,%eax
ffffffff80203a19:	d3 e0                	shl    %cl,%eax
ffffffff80203a1b:	48 63 c8             	movslq %eax,%rcx
ffffffff80203a1e:	48 09 0c fe          	or     %rcx,(%rsi,%rdi,8)
ffffffff80203a22:	ff c2                	inc    %edx
ffffffff80203a24:	44 39 d2             	cmp    %r10d,%edx
ffffffff80203a27:	75 c3                	jne    ffffffff802039ec <mmgr_alloc_size_blocks+0x70>
ffffffff80203a29:	48 01 1d f8 8c 00 00 	add    %rbx,36088(%rip)        # ffffffff8020c728 <mmgr_used_blocks>
ffffffff80203a30:	4c 89 d8             	mov    %r11,%rax
ffffffff80203a33:	48 c1 e0 0c          	shl    $0xc,%rax
ffffffff80203a37:	48 83 c4 08          	add    $0x8,%rsp
ffffffff80203a3b:	5b                   	pop    %rbx
ffffffff80203a3c:	5d                   	pop    %rbp
ffffffff80203a3d:	c3                   	retq   

ffffffff80203a3e <mmgr_free_block>:
ffffffff80203a3e:	48 89 f9             	mov    %rdi,%rcx
ffffffff80203a41:	48 c1 e9 0c          	shr    $0xc,%rcx
ffffffff80203a45:	48 85 ff             	test   %rdi,%rdi
ffffffff80203a48:	75 17                	jne    ffffffff80203a61 <mmgr_free_block+0x23>
ffffffff80203a4a:	48 83 ec 08          	sub    $0x8,%rsp
ffffffff80203a4e:	48 8d 3d 23 20 00 00 	lea    8227(%rip),%rdi        # ffffffff80205a78 <__FUNCTION__.1376+0x418>
ffffffff80203a55:	b8 00 00 00 00       	mov    $0x0,%eax
ffffffff80203a5a:	e8 7c f0 ff ff       	callq  ffffffff80202adb <printf>
ffffffff80203a5f:	eb 3a                	jmp    ffffffff80203a9b <mmgr_free_block+0x5d>
ffffffff80203a61:	8d 51 3f             	lea    0x3f(%rcx),%edx
ffffffff80203a64:	85 c9                	test   %ecx,%ecx
ffffffff80203a66:	0f 49 d1             	cmovns %ecx,%edx
ffffffff80203a69:	c1 fa 06             	sar    $0x6,%edx
ffffffff80203a6c:	48 63 d2             	movslq %edx,%rdx
ffffffff80203a6f:	48 8d 05 2a 67 00 00 	lea    26410(%rip),%rax        # ffffffff8020a1a0 <mmgr_memory_map>
ffffffff80203a76:	89 ce                	mov    %ecx,%esi
ffffffff80203a78:	c1 fe 1f             	sar    $0x1f,%esi
ffffffff80203a7b:	c1 ee 1a             	shr    $0x1a,%esi
ffffffff80203a7e:	01 f1                	add    %esi,%ecx
ffffffff80203a80:	83 e1 3f             	and    $0x3f,%ecx
ffffffff80203a83:	29 f1                	sub    %esi,%ecx
ffffffff80203a85:	be fe ff ff ff       	mov    $0xfffffffe,%esi
ffffffff80203a8a:	d3 c6                	rol    %cl,%esi
ffffffff80203a8c:	48 63 f6             	movslq %esi,%rsi
ffffffff80203a8f:	48 21 34 d0          	and    %rsi,(%rax,%rdx,8)
ffffffff80203a93:	48 ff 0d 8e 8c 00 00 	decq   35982(%rip)        # ffffffff8020c728 <mmgr_used_blocks>
ffffffff80203a9a:	c3                   	retq   
ffffffff80203a9b:	48 83 c4 08          	add    $0x8,%rsp
ffffffff80203a9f:	c3                   	retq   

ffffffff80203aa0 <mmgr_free_size_blocks>:
ffffffff80203aa0:	49 89 f9             	mov    %rdi,%r9
ffffffff80203aa3:	49 c1 e9 0c          	shr    $0xc,%r9
ffffffff80203aa7:	48 85 ff             	test   %rdi,%rdi
ffffffff80203aaa:	74 11                	je     ffffffff80203abd <mmgr_free_size_blocks+0x1d>
ffffffff80203aac:	b8 00 00 00 00       	mov    $0x0,%eax
ffffffff80203ab1:	41 ba 01 00 00 00    	mov    $0x1,%r10d
ffffffff80203ab7:	85 f6                	test   %esi,%esi
ffffffff80203ab9:	7f 19                	jg     ffffffff80203ad4 <mmgr_free_size_blocks+0x34>
ffffffff80203abb:	eb 5d                	jmp    ffffffff80203b1a <mmgr_free_size_blocks+0x7a>
ffffffff80203abd:	48 83 ec 08          	sub    $0x8,%rsp
ffffffff80203ac1:	48 8d 3d b0 1f 00 00 	lea    8112(%rip),%rdi        # ffffffff80205a78 <__FUNCTION__.1376+0x418>
ffffffff80203ac8:	b8 00 00 00 00       	mov    $0x0,%eax
ffffffff80203acd:	e8 09 f0 ff ff       	callq  ffffffff80202adb <printf>
ffffffff80203ad2:	eb 51                	jmp    ffffffff80203b25 <mmgr_free_size_blocks+0x85>
ffffffff80203ad4:	42 8d 0c 08          	lea    (%rax,%r9,1),%ecx
ffffffff80203ad8:	8d 79 3f             	lea    0x3f(%rcx),%edi
ffffffff80203adb:	85 c9                	test   %ecx,%ecx
ffffffff80203add:	0f 49 f9             	cmovns %ecx,%edi
ffffffff80203ae0:	c1 ff 06             	sar    $0x6,%edi
ffffffff80203ae3:	48 63 ff             	movslq %edi,%rdi
ffffffff80203ae6:	48 8d 15 b3 66 00 00 	lea    26291(%rip),%rdx        # ffffffff8020a1a0 <mmgr_memory_map>
ffffffff80203aed:	41 89 c8             	mov    %ecx,%r8d
ffffffff80203af0:	41 c1 f8 1f          	sar    $0x1f,%r8d
ffffffff80203af4:	41 c1 e8 1a          	shr    $0x1a,%r8d
ffffffff80203af8:	44 01 c1             	add    %r8d,%ecx
ffffffff80203afb:	83 e1 3f             	and    $0x3f,%ecx
ffffffff80203afe:	44 29 c1             	sub    %r8d,%ecx
ffffffff80203b01:	45 89 d3             	mov    %r10d,%r11d
ffffffff80203b04:	41 d3 e3             	shl    %cl,%r11d
ffffffff80203b07:	44 89 d9             	mov    %r11d,%ecx
ffffffff80203b0a:	f7 d1                	not    %ecx
ffffffff80203b0c:	48 63 c9             	movslq %ecx,%rcx
ffffffff80203b0f:	48 21 0c fa          	and    %rcx,(%rdx,%rdi,8)
ffffffff80203b13:	48 ff c0             	inc    %rax
ffffffff80203b16:	39 c6                	cmp    %eax,%esi
ffffffff80203b18:	7f ba                	jg     ffffffff80203ad4 <mmgr_free_size_blocks+0x34>
ffffffff80203b1a:	48 63 f6             	movslq %esi,%rsi
ffffffff80203b1d:	48 29 35 04 8c 00 00 	sub    %rsi,35844(%rip)        # ffffffff8020c728 <mmgr_used_blocks>
ffffffff80203b24:	c3                   	retq   
ffffffff80203b25:	48 83 c4 08          	add    $0x8,%rsp
ffffffff80203b29:	c3                   	retq   

ffffffff80203b2a <mmgr_phy_init_regions>:
ffffffff80203b2a:	48 c1 ef 0c          	shr    $0xc,%rdi
ffffffff80203b2e:	48 c1 ee 0c          	shr    $0xc,%rsi
ffffffff80203b32:	74 5f                	je     ffffffff80203b93 <mmgr_phy_init_regions+0x69>
ffffffff80203b34:	4c 8b 1d ed 8b 00 00 	mov    35821(%rip),%r11        # ffffffff8020c728 <mmgr_used_blocks>
ffffffff80203b3b:	4c 8d 14 37          	lea    (%rdi,%rsi,1),%r10
ffffffff80203b3f:	41 b9 01 00 00 00    	mov    $0x1,%r9d
ffffffff80203b45:	8d 57 3f             	lea    0x3f(%rdi),%edx
ffffffff80203b48:	85 ff                	test   %edi,%edi
ffffffff80203b4a:	0f 49 d7             	cmovns %edi,%edx
ffffffff80203b4d:	c1 fa 06             	sar    $0x6,%edx
ffffffff80203b50:	48 63 d2             	movslq %edx,%rdx
ffffffff80203b53:	48 8d 05 46 66 00 00 	lea    26182(%rip),%rax        # ffffffff8020a1a0 <mmgr_memory_map>
ffffffff80203b5a:	41 89 f8             	mov    %edi,%r8d
ffffffff80203b5d:	41 c1 f8 1f          	sar    $0x1f,%r8d
ffffffff80203b61:	41 c1 e8 1a          	shr    $0x1a,%r8d
ffffffff80203b65:	41 8d 0c 38          	lea    (%r8,%rdi,1),%ecx
ffffffff80203b69:	83 e1 3f             	and    $0x3f,%ecx
ffffffff80203b6c:	44 29 c1             	sub    %r8d,%ecx
ffffffff80203b6f:	45 89 c8             	mov    %r9d,%r8d
ffffffff80203b72:	41 d3 e0             	shl    %cl,%r8d
ffffffff80203b75:	44 89 c1             	mov    %r8d,%ecx
ffffffff80203b78:	f7 d1                	not    %ecx
ffffffff80203b7a:	48 63 c9             	movslq %ecx,%rcx
ffffffff80203b7d:	48 21 0c d0          	and    %rcx,(%rax,%rdx,8)
ffffffff80203b81:	48 ff c7             	inc    %rdi
ffffffff80203b84:	4c 39 d7             	cmp    %r10,%rdi
ffffffff80203b87:	75 bc                	jne    ffffffff80203b45 <mmgr_phy_init_regions+0x1b>
ffffffff80203b89:	49 29 f3             	sub    %rsi,%r11
ffffffff80203b8c:	4c 89 1d 95 8b 00 00 	mov    %r11,35733(%rip)        # ffffffff8020c728 <mmgr_used_blocks>
ffffffff80203b93:	f3 c3                	repz retq 

ffffffff80203b95 <mmgr_phy_deinit_regions>:
ffffffff80203b95:	48 c1 ef 0c          	shr    $0xc,%rdi
ffffffff80203b99:	48 c1 ee 0c          	shr    $0xc,%rsi
ffffffff80203b9d:	74 5a                	je     ffffffff80203bf9 <mmgr_phy_deinit_regions+0x64>
ffffffff80203b9f:	4c 8b 1d 82 8b 00 00 	mov    35714(%rip),%r11        # ffffffff8020c728 <mmgr_used_blocks>
ffffffff80203ba6:	4c 8d 14 37          	lea    (%rdi,%rsi,1),%r10
ffffffff80203baa:	41 b9 01 00 00 00    	mov    $0x1,%r9d
ffffffff80203bb0:	8d 57 3f             	lea    0x3f(%rdi),%edx
ffffffff80203bb3:	85 ff                	test   %edi,%edi
ffffffff80203bb5:	0f 49 d7             	cmovns %edi,%edx
ffffffff80203bb8:	c1 fa 06             	sar    $0x6,%edx
ffffffff80203bbb:	48 63 d2             	movslq %edx,%rdx
ffffffff80203bbe:	48 8d 05 db 65 00 00 	lea    26075(%rip),%rax        # ffffffff8020a1a0 <mmgr_memory_map>
ffffffff80203bc5:	41 89 f8             	mov    %edi,%r8d
ffffffff80203bc8:	41 c1 f8 1f          	sar    $0x1f,%r8d
ffffffff80203bcc:	41 c1 e8 1a          	shr    $0x1a,%r8d
ffffffff80203bd0:	41 8d 0c 38          	lea    (%r8,%rdi,1),%ecx
ffffffff80203bd4:	83 e1 3f             	and    $0x3f,%ecx
ffffffff80203bd7:	44 29 c1             	sub    %r8d,%ecx
ffffffff80203bda:	45 89 c8             	mov    %r9d,%r8d
ffffffff80203bdd:	41 d3 e0             	shl    %cl,%r8d
ffffffff80203be0:	49 63 c8             	movslq %r8d,%rcx
ffffffff80203be3:	48 09 0c d0          	or     %rcx,(%rax,%rdx,8)
ffffffff80203be7:	48 ff c7             	inc    %rdi
ffffffff80203bea:	4c 39 d7             	cmp    %r10,%rdi
ffffffff80203bed:	75 c1                	jne    ffffffff80203bb0 <mmgr_phy_deinit_regions+0x1b>
ffffffff80203bef:	4c 01 de             	add    %r11,%rsi
ffffffff80203bf2:	48 89 35 2f 8b 00 00 	mov    %rsi,35631(%rip)        # ffffffff8020c728 <mmgr_used_blocks>
ffffffff80203bf9:	48 83 0d 9f 65 00 00 	orq    $0x1,26015(%rip)        # ffffffff8020a1a0 <mmgr_memory_map>
ffffffff80203c00:	01 
ffffffff80203c01:	c3                   	retq   

ffffffff80203c02 <mmgr_syncwith_kernel>:
ffffffff80203c02:	4c 8b 0d 1f 8b 00 00 	mov    35615(%rip),%r9        # ffffffff8020c728 <mmgr_used_blocks>
ffffffff80203c09:	b8 00 02 00 00       	mov    $0x200,%eax
ffffffff80203c0e:	41 b8 01 00 00 00    	mov    $0x1,%r8d
ffffffff80203c14:	8d 70 3f             	lea    0x3f(%rax),%esi
ffffffff80203c17:	85 c0                	test   %eax,%eax
ffffffff80203c19:	0f 49 f0             	cmovns %eax,%esi
ffffffff80203c1c:	c1 fe 06             	sar    $0x6,%esi
ffffffff80203c1f:	48 63 f6             	movslq %esi,%rsi
ffffffff80203c22:	48 8d 15 77 65 00 00 	lea    25975(%rip),%rdx        # ffffffff8020a1a0 <mmgr_memory_map>
ffffffff80203c29:	89 c7                	mov    %eax,%edi
ffffffff80203c2b:	c1 ff 1f             	sar    $0x1f,%edi
ffffffff80203c2e:	c1 ef 1a             	shr    $0x1a,%edi
ffffffff80203c31:	8d 0c 38             	lea    (%rax,%rdi,1),%ecx
ffffffff80203c34:	83 e1 3f             	and    $0x3f,%ecx
ffffffff80203c37:	29 f9                	sub    %edi,%ecx
ffffffff80203c39:	44 89 c7             	mov    %r8d,%edi
ffffffff80203c3c:	d3 e7                	shl    %cl,%edi
ffffffff80203c3e:	48 63 cf             	movslq %edi,%rcx
ffffffff80203c41:	48 09 0c f2          	or     %rcx,(%rdx,%rsi,8)
ffffffff80203c45:	ff c0                	inc    %eax
ffffffff80203c47:	3d 00 28 00 00       	cmp    $0x2800,%eax
ffffffff80203c4c:	75 c6                	jne    ffffffff80203c14 <mmgr_syncwith_kernel+0x12>
ffffffff80203c4e:	49 81 c1 00 26 00 00 	add    $0x2600,%r9
ffffffff80203c55:	4c 89 0d cc 8a 00 00 	mov    %r9,35532(%rip)        # ffffffff8020c728 <mmgr_used_blocks>
ffffffff80203c5c:	c3                   	retq   

ffffffff80203c5d <mm_phy_init>:
ffffffff80203c5d:	55                   	push   %rbp
ffffffff80203c5e:	53                   	push   %rbx
ffffffff80203c5f:	48 83 ec 08          	sub    $0x8,%rsp
ffffffff80203c63:	81 3f 01 90 00 00    	cmpl   $0x9001,(%rdi)
ffffffff80203c69:	74 12                	je     ffffffff80203c7d <mm_phy_init+0x20>
ffffffff80203c6b:	8b 47 04             	mov    0x4(%rdi),%eax
ffffffff80203c6e:	83 c0 02             	add    $0x2,%eax
ffffffff80203c71:	48 8d 3c 87          	lea    (%rdi,%rax,4),%rdi
ffffffff80203c75:	81 3f 01 90 00 00    	cmpl   $0x9001,(%rdi)
ffffffff80203c7b:	75 ee                	jne    ffffffff80203c6b <mm_phy_init+0xe>
ffffffff80203c7d:	48 8d 47 08          	lea    0x8(%rdi),%rax
ffffffff80203c81:	8b 57 04             	mov    0x4(%rdi),%edx
ffffffff80203c84:	48 8d 54 17 08       	lea    0x8(%rdi,%rdx,1),%rdx
ffffffff80203c89:	48 39 d0             	cmp    %rdx,%rax
ffffffff80203c8c:	0f 83 a9 00 00 00    	jae    ffffffff80203d3b <mm_phy_init+0xde>
ffffffff80203c92:	4c 8b 05 97 8a 00 00 	mov    35479(%rip),%r8        # ffffffff8020c730 <mmgr_usable_memory_size>
ffffffff80203c99:	48 83 78 08 00       	cmpq   $0x0,0x8(%rax)
ffffffff80203c9e:	74 7f                	je     ffffffff80203d1f <mm_phy_init+0xc2>
ffffffff80203ca0:	48 8b 15 49 55 00 00 	mov    21833(%rip),%rdx        # ffffffff802091f0 <__FUNCTION__.1376+0x3b90>
ffffffff80203ca7:	48 8b 12             	mov    (%rdx),%rdx
ffffffff80203caa:	48 8b 30             	mov    (%rax),%rsi
ffffffff80203cad:	48 89 d1             	mov    %rdx,%rcx
ffffffff80203cb0:	48 c1 e1 04          	shl    $0x4,%rcx
ffffffff80203cb4:	48 8d 0c 91          	lea    (%rcx,%rdx,4),%rcx
ffffffff80203cb8:	48 03 0d 51 53 00 00 	add    21329(%rip),%rcx        # ffffffff80209010 <__FUNCTION__.1376+0x39b0>
ffffffff80203cbf:	48 89 31             	mov    %rsi,(%rcx)
ffffffff80203cc2:	48 8b 70 08          	mov    0x8(%rax),%rsi
ffffffff80203cc6:	48 89 71 08          	mov    %rsi,0x8(%rcx)
ffffffff80203cca:	8b 70 10             	mov    0x10(%rax),%esi
ffffffff80203ccd:	89 71 10             	mov    %esi,0x10(%rcx)
ffffffff80203cd0:	83 78 10 01          	cmpl   $0x1,0x10(%rax)
ffffffff80203cd4:	75 3c                	jne    ffffffff80203d12 <mm_phy_init+0xb5>
ffffffff80203cd6:	4c 03 40 08          	add    0x8(%rax),%r8
ffffffff80203cda:	4c 8b 0d b7 55 00 00 	mov    21943(%rip),%r9        # ffffffff80209298 <__FUNCTION__.1376+0x3c38>
ffffffff80203ce1:	49 8b 09             	mov    (%r9),%rcx
ffffffff80203ce4:	4c 8b 10             	mov    (%rax),%r10
ffffffff80203ce7:	48 89 ce             	mov    %rcx,%rsi
ffffffff80203cea:	48 c1 e6 04          	shl    $0x4,%rsi
ffffffff80203cee:	48 8d 34 8e          	lea    (%rsi,%rcx,4),%rsi
ffffffff80203cf2:	48 03 35 4f 53 00 00 	add    21327(%rip),%rsi        # ffffffff80209048 <__FUNCTION__.1376+0x39e8>
ffffffff80203cf9:	4c 89 16             	mov    %r10,(%rsi)
ffffffff80203cfc:	4c 8b 50 08          	mov    0x8(%rax),%r10
ffffffff80203d00:	4c 89 56 08          	mov    %r10,0x8(%rsi)
ffffffff80203d04:	44 8b 50 10          	mov    0x10(%rax),%r10d
ffffffff80203d08:	44 89 56 10          	mov    %r10d,0x10(%rsi)
ffffffff80203d0c:	48 ff c1             	inc    %rcx
ffffffff80203d0f:	49 89 09             	mov    %rcx,(%r9)
ffffffff80203d12:	48 ff c2             	inc    %rdx
ffffffff80203d15:	48 8b 0d d4 54 00 00 	mov    21716(%rip),%rcx        # ffffffff802091f0 <__FUNCTION__.1376+0x3b90>
ffffffff80203d1c:	48 89 11             	mov    %rdx,(%rcx)
ffffffff80203d1f:	48 83 c0 14          	add    $0x14,%rax
ffffffff80203d23:	8b 57 04             	mov    0x4(%rdi),%edx
ffffffff80203d26:	48 8d 54 17 08       	lea    0x8(%rdi,%rdx,1),%rdx
ffffffff80203d2b:	48 39 d0             	cmp    %rdx,%rax
ffffffff80203d2e:	0f 82 65 ff ff ff    	jb     ffffffff80203c99 <mm_phy_init+0x3c>
ffffffff80203d34:	4c 89 05 f5 89 00 00 	mov    %r8,35317(%rip)        # ffffffff8020c730 <mmgr_usable_memory_size>
ffffffff80203d3b:	48 8b 15 ee 89 00 00 	mov    35310(%rip),%rdx        # ffffffff8020c730 <mmgr_usable_memory_size>
ffffffff80203d42:	48 89 d0             	mov    %rdx,%rax
ffffffff80203d45:	48 c1 e8 0c          	shr    $0xc,%rax
ffffffff80203d49:	48 89 05 d0 89 00 00 	mov    %rax,35280(%rip)        # ffffffff8020c720 <mmgr_max_blocks>
ffffffff80203d50:	48 89 05 d1 89 00 00 	mov    %rax,35281(%rip)        # ffffffff8020c728 <mmgr_used_blocks>
ffffffff80203d57:	48 89 d0             	mov    %rdx,%rax
ffffffff80203d5a:	48 c1 e8 14          	shr    $0x14,%rax
ffffffff80203d5e:	48 89 05 cb 89 00 00 	mov    %rax,35275(%rip)        # ffffffff8020c730 <mmgr_usable_memory_size>
ffffffff80203d65:	48 c1 ea 12          	shr    $0x12,%rdx
ffffffff80203d69:	be 0f 00 00 00       	mov    $0xf,%esi
ffffffff80203d6e:	48 8d 3d 2b 64 00 00 	lea    25643(%rip),%rdi        # ffffffff8020a1a0 <mmgr_memory_map>
ffffffff80203d75:	e8 a9 ea ff ff       	callq  ffffffff80202823 <memset>
ffffffff80203d7a:	48 8b 05 17 55 00 00 	mov    21783(%rip),%rax        # ffffffff80209298 <__FUNCTION__.1376+0x3c38>
ffffffff80203d81:	48 83 38 00          	cmpq   $0x0,(%rax)
ffffffff80203d85:	0f 84 86 00 00 00    	je     ffffffff80203e11 <mm_phy_init+0x1b4>
ffffffff80203d8b:	bb 00 00 00 00       	mov    $0x0,%ebx
ffffffff80203d90:	48 8b 2d b1 52 00 00 	mov    21169(%rip),%rbp        # ffffffff80209048 <__FUNCTION__.1376+0x39e8>
ffffffff80203d97:	0f b7 c3             	movzwl %bx,%eax
ffffffff80203d9a:	48 89 c2             	mov    %rax,%rdx
ffffffff80203d9d:	48 c1 e2 04          	shl    $0x4,%rdx
ffffffff80203da1:	48 8d 04 82          	lea    (%rdx,%rax,4),%rax
ffffffff80203da5:	48 01 e8             	add    %rbp,%rax
ffffffff80203da8:	48 8b 70 08          	mov    0x8(%rax),%rsi
ffffffff80203dac:	48 8b 38             	mov    (%rax),%rdi
ffffffff80203daf:	e8 76 fd ff ff       	callq  ffffffff80203b2a <mmgr_phy_init_regions>
ffffffff80203db4:	ff c3                	inc    %ebx
ffffffff80203db6:	0f b7 d3             	movzwl %bx,%edx
ffffffff80203db9:	48 8b 05 d8 54 00 00 	mov    21720(%rip),%rax        # ffffffff80209298 <__FUNCTION__.1376+0x3c38>
ffffffff80203dc0:	48 3b 10             	cmp    (%rax),%rdx
ffffffff80203dc3:	72 d2                	jb     ffffffff80203d97 <mm_phy_init+0x13a>
ffffffff80203dc5:	eb 4a                	jmp    ffffffff80203e11 <mm_phy_init+0x1b4>
ffffffff80203dc7:	8d 70 3f             	lea    0x3f(%rax),%esi
ffffffff80203dca:	85 c0                	test   %eax,%eax
ffffffff80203dcc:	0f 49 f0             	cmovns %eax,%esi
ffffffff80203dcf:	c1 fe 06             	sar    $0x6,%esi
ffffffff80203dd2:	48 63 f6             	movslq %esi,%rsi
ffffffff80203dd5:	48 8d 15 c4 63 00 00 	lea    25540(%rip),%rdx        # ffffffff8020a1a0 <mmgr_memory_map>
ffffffff80203ddc:	89 c7                	mov    %eax,%edi
ffffffff80203dde:	c1 ff 1f             	sar    $0x1f,%edi
ffffffff80203de1:	c1 ef 1a             	shr    $0x1a,%edi
ffffffff80203de4:	8d 0c 38             	lea    (%rax,%rdi,1),%ecx
ffffffff80203de7:	83 e1 3f             	and    $0x3f,%ecx
ffffffff80203dea:	29 f9                	sub    %edi,%ecx
ffffffff80203dec:	44 89 c3             	mov    %r8d,%ebx
ffffffff80203def:	d3 e3                	shl    %cl,%ebx
ffffffff80203df1:	48 63 cb             	movslq %ebx,%rcx
ffffffff80203df4:	48 09 0c f2          	or     %rcx,(%rdx,%rsi,8)
ffffffff80203df8:	ff c0                	inc    %eax
ffffffff80203dfa:	3d 00 04 00 00       	cmp    $0x400,%eax
ffffffff80203dff:	75 c6                	jne    ffffffff80203dc7 <mm_phy_init+0x16a>
ffffffff80203e01:	49 81 c1 00 04 00 00 	add    $0x400,%r9
ffffffff80203e08:	4c 89 0d 19 89 00 00 	mov    %r9,35097(%rip)        # ffffffff8020c728 <mmgr_used_blocks>
ffffffff80203e0f:	eb 14                	jmp    ffffffff80203e25 <mm_phy_init+0x1c8>
ffffffff80203e11:	4c 8b 0d 10 89 00 00 	mov    35088(%rip),%r9        # ffffffff8020c728 <mmgr_used_blocks>
ffffffff80203e18:	b8 00 00 00 00       	mov    $0x0,%eax
ffffffff80203e1d:	41 b8 01 00 00 00    	mov    $0x1,%r8d
ffffffff80203e23:	eb a2                	jmp    ffffffff80203dc7 <mm_phy_init+0x16a>
ffffffff80203e25:	48 83 c4 08          	add    $0x8,%rsp
ffffffff80203e29:	5b                   	pop    %rbx
ffffffff80203e2a:	5d                   	pop    %rbp
ffffffff80203e2b:	c3                   	retq   

ffffffff80203e2c <mmgr_get_block_count>:
ffffffff80203e2c:	b8 00 00 00 00       	mov    $0x0,%eax
ffffffff80203e31:	c3                   	retq   
	...

ffffffff80203e40 <find_block>:
ffffffff80203e40:	48 8b 05 b9 51 00 00 	mov    20921(%rip),%rax        # ffffffff80209000 <__FUNCTION__.1376+0x39a0>
ffffffff80203e47:	48 8b 00             	mov    (%rax),%rax
ffffffff80203e4a:	48 85 c0             	test   %rax,%rax
ffffffff80203e4d:	75 0d                	jne    ffffffff80203e5c <find_block+0x1c>
ffffffff80203e4f:	f3 c3                	repz retq 
ffffffff80203e51:	48 89 07             	mov    %rax,(%rdi)
ffffffff80203e54:	48 8b 00             	mov    (%rax),%rax
ffffffff80203e57:	48 85 c0             	test   %rax,%rax
ffffffff80203e5a:	74 0d                	je     ffffffff80203e69 <find_block+0x29>
ffffffff80203e5c:	66 83 78 0a 00       	cmpw   $0x0,0xa(%rax)
ffffffff80203e61:	74 ee                	je     ffffffff80203e51 <find_block+0x11>
ffffffff80203e63:	66 39 70 08          	cmp    %si,0x8(%rax)
ffffffff80203e67:	72 e8                	jb     ffffffff80203e51 <find_block+0x11>
ffffffff80203e69:	f3 c3                	repz retq 

ffffffff80203e6b <extend_heap>:
ffffffff80203e6b:	55                   	push   %rbp
ffffffff80203e6c:	53                   	push   %rbx
ffffffff80203e6d:	48 83 ec 08          	sub    $0x8,%rsp
ffffffff80203e71:	48 89 fd             	mov    %rdi,%rbp
ffffffff80203e74:	bf 00 00 00 00       	mov    $0x0,%edi
ffffffff80203e79:	e8 6c 08 00 00       	callq  ffffffff802046ea <vmmgr_alloc_page>
ffffffff80203e7e:	48 89 c3             	mov    %rax,%rbx
ffffffff80203e81:	48 85 c0             	test   %rax,%rax
ffffffff80203e84:	75 18                	jne    ffffffff80203e9e <extend_heap+0x33>
ffffffff80203e86:	48 8d 15 b1 42 00 00 	lea    17073(%rip),%rdx        # ffffffff8020813e <__FUNCTION__.1376+0x2ade>
ffffffff80203e8d:	be 2f 00 00 00       	mov    $0x2f,%esi
ffffffff80203e92:	48 8d 3d 62 17 00 00 	lea    5986(%rip),%rdi        # ffffffff802055fb <__FUNCTION__.1325>
ffffffff80203e99:	e8 96 ee ff ff       	callq  ffffffff80202d34 <PANIC>
ffffffff80203e9e:	66 c7 43 08 00 10    	movw   $0x1000,0x8(%rbx)
ffffffff80203ea4:	48 c7 03 00 00 00 00 	movq   $0x0,(%rbx)
ffffffff80203eab:	48 85 ed             	test   %rbp,%rbp
ffffffff80203eae:	74 04                	je     ffffffff80203eb4 <extend_heap+0x49>
ffffffff80203eb0:	48 89 5d 00          	mov    %rbx,0x0(%rbp)
ffffffff80203eb4:	66 c7 43 0a 00 00    	movw   $0x0,0xa(%rbx)
ffffffff80203eba:	48 89 d8             	mov    %rbx,%rax
ffffffff80203ebd:	48 83 c4 08          	add    $0x8,%rsp
ffffffff80203ec1:	5b                   	pop    %rbx
ffffffff80203ec2:	5d                   	pop    %rbp
ffffffff80203ec3:	c3                   	retq   

ffffffff80203ec4 <sub_free>:
ffffffff80203ec4:	66 c7 47 fa 01 00    	movw   $0x1,0xfffffffffffffffa(%rdi)
ffffffff80203eca:	c3                   	retq   

ffffffff80203ecb <split_block>:
ffffffff80203ecb:	8d 56 10             	lea    0x10(%rsi),%edx
ffffffff80203ece:	89 d0                	mov    %edx,%eax
ffffffff80203ed0:	66 c1 e8 04          	shr    $0x4,%ax
ffffffff80203ed4:	0f b7 c0             	movzwl %ax,%eax
ffffffff80203ed7:	48 ff c0             	inc    %rax
ffffffff80203eda:	48 c1 e0 04          	shl    $0x4,%rax
ffffffff80203ede:	48 01 f8             	add    %rdi,%rax
ffffffff80203ee1:	48 8b 0f             	mov    (%rdi),%rcx
ffffffff80203ee4:	48 89 08             	mov    %rcx,(%rax)
ffffffff80203ee7:	0f b7 4f 08          	movzwl 0x8(%rdi),%ecx
ffffffff80203eeb:	29 d1                	sub    %edx,%ecx
ffffffff80203eed:	66 89 48 08          	mov    %cx,0x8(%rax)
ffffffff80203ef1:	66 c7 40 0a 01 00    	movw   $0x1,0xa(%rax)
ffffffff80203ef7:	66 89 77 08          	mov    %si,0x8(%rdi)
ffffffff80203efb:	48 89 07             	mov    %rax,(%rdi)
ffffffff80203efe:	c3                   	retq   

ffffffff80203eff <sub_malloc>:
ffffffff80203eff:	55                   	push   %rbp
ffffffff80203f00:	53                   	push   %rbx
ffffffff80203f01:	48 83 ec 08          	sub    $0x8,%rsp
ffffffff80203f05:	85 f6                	test   %esi,%esi
ffffffff80203f07:	74 0d                	je     ffffffff80203f16 <sub_malloc+0x17>
ffffffff80203f09:	0f b7 ff             	movzwl %di,%edi
ffffffff80203f0c:	e8 d9 07 00 00       	callq  ffffffff802046ea <vmmgr_alloc_page>
ffffffff80203f11:	e9 bf 00 00 00       	jmpq   ffffffff80203fd5 <sub_malloc+0xd6>
ffffffff80203f16:	8d 6f ff             	lea    0xffffffffffffffff(%rdi),%ebp
ffffffff80203f19:	83 e5 f8             	and    $0xfffffffffffffff8,%ebp
ffffffff80203f1c:	83 c5 08             	add    $0x8,%ebp
ffffffff80203f1f:	48 8b 05 da 50 00 00 	mov    20698(%rip),%rax        # ffffffff80209000 <__FUNCTION__.1376+0x39a0>
ffffffff80203f26:	48 8b 00             	mov    (%rax),%rax
ffffffff80203f29:	48 85 c0             	test   %rax,%rax
ffffffff80203f2c:	74 54                	je     ffffffff80203f82 <sub_malloc+0x83>
ffffffff80203f2e:	48 8b 3d 5b 51 00 00 	mov    20827(%rip),%rdi        # ffffffff80209090 <__FUNCTION__.1376+0x3a30>
ffffffff80203f35:	48 89 07             	mov    %rax,(%rdi)
ffffffff80203f38:	0f b7 ed             	movzwl %bp,%ebp
ffffffff80203f3b:	89 ee                	mov    %ebp,%esi
ffffffff80203f3d:	e8 fe fe ff ff       	callq  ffffffff80203e40 <find_block>
ffffffff80203f42:	48 89 c3             	mov    %rax,%rbx
ffffffff80203f45:	48 85 c0             	test   %rax,%rax
ffffffff80203f48:	74 1d                	je     ffffffff80203f67 <sub_malloc+0x68>
ffffffff80203f4a:	0f b7 40 08          	movzwl 0x8(%rax),%eax
ffffffff80203f4e:	29 e8                	sub    %ebp,%eax
ffffffff80203f50:	83 f8 13             	cmp    $0x13,%eax
ffffffff80203f53:	76 0a                	jbe    ffffffff80203f5f <sub_malloc+0x60>
ffffffff80203f55:	89 ee                	mov    %ebp,%esi
ffffffff80203f57:	48 89 df             	mov    %rbx,%rdi
ffffffff80203f5a:	e8 6c ff ff ff       	callq  ffffffff80203ecb <split_block>
ffffffff80203f5f:	66 c7 43 0a 00 00    	movw   $0x0,0xa(%rbx)
ffffffff80203f65:	eb 63                	jmp    ffffffff80203fca <sub_malloc+0xcb>
ffffffff80203f67:	89 ee                	mov    %ebp,%esi
ffffffff80203f69:	48 8b 05 20 51 00 00 	mov    20768(%rip),%rax        # ffffffff80209090 <__FUNCTION__.1376+0x3a30>
ffffffff80203f70:	48 8b 38             	mov    (%rax),%rdi
ffffffff80203f73:	e8 f3 fe ff ff       	callq  ffffffff80203e6b <extend_heap>
ffffffff80203f78:	48 89 c3             	mov    %rax,%rbx
ffffffff80203f7b:	48 85 c0             	test   %rax,%rax
ffffffff80203f7e:	75 4a                	jne    ffffffff80203fca <sub_malloc+0xcb>
ffffffff80203f80:	eb 4e                	jmp    ffffffff80203fd0 <sub_malloc+0xd1>
ffffffff80203f82:	0f b7 ed             	movzwl %bp,%ebp
ffffffff80203f85:	89 ee                	mov    %ebp,%esi
ffffffff80203f87:	48 8b 05 02 51 00 00 	mov    20738(%rip),%rax        # ffffffff80209090 <__FUNCTION__.1376+0x3a30>
ffffffff80203f8e:	48 8b 38             	mov    (%rax),%rdi
ffffffff80203f91:	e8 d5 fe ff ff       	callq  ffffffff80203e6b <extend_heap>
ffffffff80203f96:	48 89 c3             	mov    %rax,%rbx
ffffffff80203f99:	48 85 c0             	test   %rax,%rax
ffffffff80203f9c:	75 18                	jne    ffffffff80203fb6 <sub_malloc+0xb7>
ffffffff80203f9e:	48 8d 15 a4 41 00 00 	lea    16804(%rip),%rdx        # ffffffff80208149 <__FUNCTION__.1376+0x2ae9>
ffffffff80203fa5:	be 67 00 00 00       	mov    $0x67,%esi
ffffffff80203faa:	48 8d 3d 3f 16 00 00 	lea    5695(%rip),%rdi        # ffffffff802055f0 <__FUNCTION__.1343>
ffffffff80203fb1:	e8 7e ed ff ff       	callq  ffffffff80202d34 <PANIC>
ffffffff80203fb6:	48 8b 05 43 50 00 00 	mov    20547(%rip),%rax        # ffffffff80209000 <__FUNCTION__.1376+0x39a0>
ffffffff80203fbd:	48 89 18             	mov    %rbx,(%rax)
ffffffff80203fc0:	89 ee                	mov    %ebp,%esi
ffffffff80203fc2:	48 89 df             	mov    %rbx,%rdi
ffffffff80203fc5:	e8 01 ff ff ff       	callq  ffffffff80203ecb <split_block>
ffffffff80203fca:	48 8d 43 10          	lea    0x10(%rbx),%rax
ffffffff80203fce:	eb 05                	jmp    ffffffff80203fd5 <sub_malloc+0xd6>
ffffffff80203fd0:	b8 00 00 00 00       	mov    $0x0,%eax
ffffffff80203fd5:	48 83 c4 08          	add    $0x8,%rsp
ffffffff80203fd9:	5b                   	pop    %rbx
ffffffff80203fda:	5d                   	pop    %rbp
ffffffff80203fdb:	c3                   	retq   

ffffffff80203fdc <get_paging_status>:
ffffffff80203fdc:	0f 20 c2             	mov    %cr0,%rdx
ffffffff80203fdf:	48 c1 ea 1f          	shr    $0x1f,%rdx
ffffffff80203fe3:	89 d0                	mov    %edx,%eax
ffffffff80203fe5:	83 e0 01             	and    $0x1,%eax
ffffffff80203fe8:	c3                   	retq   

ffffffff80203fe9 <get_cr0_register>:
ffffffff80203fe9:	0f 20 c2             	mov    %cr0,%rdx
ffffffff80203fec:	48 89 d0             	mov    %rdx,%rax
ffffffff80203fef:	c3                   	retq   

ffffffff80203ff0 <get_cr4_register>:
ffffffff80203ff0:	0f 20 e2             	mov    %cr4,%rdx
ffffffff80203ff3:	48 89 d0             	mov    %rdx,%rax
ffffffff80203ff6:	c3                   	retq   

ffffffff80203ff7 <get_cr3_register>:
ffffffff80203ff7:	0f 20 da             	mov    %cr3,%rdx
ffffffff80203ffa:	48 89 d0             	mov    %rdx,%rax
ffffffff80203ffd:	c3                   	retq   

ffffffff80203ffe <pmmngr_load_PDBR>:
ffffffff80203ffe:	f3 c3                	repz retq 

ffffffff80204000 <slob_free>:
ffffffff80204000:	48 85 ff             	test   %rdi,%rdi
ffffffff80204003:	0f 84 9e 00 00 00    	je     ffffffff802040a7 <slob_free+0xa7>
ffffffff80204009:	85 f6                	test   %esi,%esi
ffffffff8020400b:	74 0d                	je     ffffffff8020401a <slob_free+0x1a>
ffffffff8020400d:	48 63 f6             	movslq %esi,%rsi
ffffffff80204010:	48 83 c6 0f          	add    $0xf,%rsi
ffffffff80204014:	48 c1 ee 04          	shr    $0x4,%rsi
ffffffff80204018:	89 37                	mov    %esi,(%rdi)
ffffffff8020401a:	48 8b 05 0f 03 06 00 	mov    393999(%rip),%rax        # ffffffff80264330 <slobfree>
ffffffff80204021:	eb 08                	jmp    ffffffff8020402b <slob_free+0x2b>
ffffffff80204023:	48 39 d7             	cmp    %rdx,%rdi
ffffffff80204026:	72 11                	jb     ffffffff80204039 <slob_free+0x39>
ffffffff80204028:	48 89 d0             	mov    %rdx,%rax
ffffffff8020402b:	48 39 f8             	cmp    %rdi,%rax
ffffffff8020402e:	73 5f                	jae    ffffffff8020408f <slob_free+0x8f>
ffffffff80204030:	48 8b 50 08          	mov    0x8(%rax),%rdx
ffffffff80204034:	48 39 d7             	cmp    %rdx,%rdi
ffffffff80204037:	73 64                	jae    ffffffff8020409d <slob_free+0x9d>
ffffffff80204039:	8b 37                	mov    (%rdi),%esi
ffffffff8020403b:	48 63 ce             	movslq %esi,%rcx
ffffffff8020403e:	48 c1 e1 04          	shl    $0x4,%rcx
ffffffff80204042:	48 01 f9             	add    %rdi,%rcx
ffffffff80204045:	48 8b 50 08          	mov    0x8(%rax),%rdx
ffffffff80204049:	48 39 d1             	cmp    %rdx,%rcx
ffffffff8020404c:	75 12                	jne    ffffffff80204060 <slob_free+0x60>
ffffffff8020404e:	03 31                	add    (%rcx),%esi
ffffffff80204050:	89 37                	mov    %esi,(%rdi)
ffffffff80204052:	48 8b 50 08          	mov    0x8(%rax),%rdx
ffffffff80204056:	48 8b 52 08          	mov    0x8(%rdx),%rdx
ffffffff8020405a:	48 89 57 08          	mov    %rdx,0x8(%rdi)
ffffffff8020405e:	eb 04                	jmp    ffffffff80204064 <slob_free+0x64>
ffffffff80204060:	48 89 57 08          	mov    %rdx,0x8(%rdi)
ffffffff80204064:	8b 10                	mov    (%rax),%edx
ffffffff80204066:	48 63 ca             	movslq %edx,%rcx
ffffffff80204069:	48 c1 e1 04          	shl    $0x4,%rcx
ffffffff8020406d:	48 01 c1             	add    %rax,%rcx
ffffffff80204070:	48 39 cf             	cmp    %rcx,%rdi
ffffffff80204073:	75 0e                	jne    ffffffff80204083 <slob_free+0x83>
ffffffff80204075:	03 17                	add    (%rdi),%edx
ffffffff80204077:	89 10                	mov    %edx,(%rax)
ffffffff80204079:	48 8b 57 08          	mov    0x8(%rdi),%rdx
ffffffff8020407d:	48 89 50 08          	mov    %rdx,0x8(%rax)
ffffffff80204081:	eb 04                	jmp    ffffffff80204087 <slob_free+0x87>
ffffffff80204083:	48 89 78 08          	mov    %rdi,0x8(%rax)
ffffffff80204087:	48 89 05 a2 02 06 00 	mov    %rax,393890(%rip)        # ffffffff80264330 <slobfree>
ffffffff8020408e:	c3                   	retq   
ffffffff8020408f:	48 8b 50 08          	mov    0x8(%rax),%rdx
ffffffff80204093:	48 39 d0             	cmp    %rdx,%rax
ffffffff80204096:	73 8b                	jae    ffffffff80204023 <slob_free+0x23>
ffffffff80204098:	48 89 d0             	mov    %rdx,%rax
ffffffff8020409b:	eb 8e                	jmp    ffffffff8020402b <slob_free+0x2b>
ffffffff8020409d:	48 39 d0             	cmp    %rdx,%rax
ffffffff802040a0:	73 97                	jae    ffffffff80204039 <slob_free+0x39>
ffffffff802040a2:	48 89 d0             	mov    %rdx,%rax
ffffffff802040a5:	eb 84                	jmp    ffffffff8020402b <slob_free+0x2b>
ffffffff802040a7:	f3 c3                	repz retq 

ffffffff802040a9 <slob_alloc>:
ffffffff802040a9:	41 57                	push   %r15
ffffffff802040ab:	41 56                	push   %r14
ffffffff802040ad:	41 55                	push   %r13
ffffffff802040af:	41 54                	push   %r12
ffffffff802040b1:	55                   	push   %rbp
ffffffff802040b2:	53                   	push   %rbx
ffffffff802040b3:	48 83 ec 28          	sub    $0x28,%rsp
ffffffff802040b7:	89 7c 24 14          	mov    %edi,0x14(%rsp)
ffffffff802040bb:	41 89 f4             	mov    %esi,%r12d
ffffffff802040be:	48 63 c7             	movslq %edi,%rax
ffffffff802040c1:	48 83 c0 0f          	add    $0xf,%rax
ffffffff802040c5:	48 c1 e8 04          	shr    $0x4,%rax
ffffffff802040c9:	48 89 44 24 18       	mov    %rax,0x18(%rsp)
ffffffff802040ce:	41 89 c5             	mov    %eax,%r13d
ffffffff802040d1:	48 8b 0d 58 02 06 00 	mov    393816(%rip),%rcx        # ffffffff80264330 <slobfree>
ffffffff802040d8:	48 8b 59 08          	mov    0x8(%rcx),%rbx
ffffffff802040dc:	bd 00 00 00 00       	mov    $0x0,%ebp
ffffffff802040e1:	41 be 00 00 00 00    	mov    $0x0,%r14d
ffffffff802040e7:	48 63 c6             	movslq %esi,%rax
ffffffff802040ea:	4c 8d 78 ff          	lea    0xffffffffffffffff(%rax),%r15
ffffffff802040ee:	48 f7 d8             	neg    %rax
ffffffff802040f1:	48 89 44 24 08       	mov    %rax,0x8(%rsp)
ffffffff802040f6:	45 85 e4             	test   %r12d,%r12d
ffffffff802040f9:	74 13                	je     ffffffff8020410e <slob_alloc+0x65>
ffffffff802040fb:	4a 8d 2c 3b          	lea    (%rbx,%r15,1),%rbp
ffffffff802040ff:	48 23 6c 24 08       	and    0x8(%rsp),%rbp
ffffffff80204104:	49 89 ee             	mov    %rbp,%r14
ffffffff80204107:	48 29 dd             	sub    %rbx,%rbp
ffffffff8020410a:	48 c1 ed 04          	shr    $0x4,%rbp
ffffffff8020410e:	8b 03                	mov    (%rbx),%eax
ffffffff80204110:	41 8d 54 2d 00       	lea    0x0(%r13,%rbp,1),%edx
ffffffff80204115:	39 d0                	cmp    %edx,%eax
ffffffff80204117:	7c 62                	jl     ffffffff8020417b <slob_alloc+0xd2>
ffffffff80204119:	85 ed                	test   %ebp,%ebp
ffffffff8020411b:	74 19                	je     ffffffff80204136 <slob_alloc+0x8d>
ffffffff8020411d:	29 e8                	sub    %ebp,%eax
ffffffff8020411f:	41 89 06             	mov    %eax,(%r14)
ffffffff80204122:	48 8b 43 08          	mov    0x8(%rbx),%rax
ffffffff80204126:	49 89 46 08          	mov    %rax,0x8(%r14)
ffffffff8020412a:	4c 89 73 08          	mov    %r14,0x8(%rbx)
ffffffff8020412e:	89 2b                	mov    %ebp,(%rbx)
ffffffff80204130:	48 89 d9             	mov    %rbx,%rcx
ffffffff80204133:	4c 89 f3             	mov    %r14,%rbx
ffffffff80204136:	8b 44 24 18          	mov    0x18(%rsp),%eax
ffffffff8020413a:	39 03                	cmp    %eax,(%rbx)
ffffffff8020413c:	75 0a                	jne    ffffffff80204148 <slob_alloc+0x9f>
ffffffff8020413e:	48 8b 43 08          	mov    0x8(%rbx),%rax
ffffffff80204142:	48 89 41 08          	mov    %rax,0x8(%rcx)
ffffffff80204146:	eb 27                	jmp    ffffffff8020416f <slob_alloc+0xc6>
ffffffff80204148:	48 8b 74 24 18       	mov    0x18(%rsp),%rsi
ffffffff8020414d:	48 63 c6             	movslq %esi,%rax
ffffffff80204150:	48 c1 e0 04          	shl    $0x4,%rax
ffffffff80204154:	48 01 d8             	add    %rbx,%rax
ffffffff80204157:	48 89 41 08          	mov    %rax,0x8(%rcx)
ffffffff8020415b:	8b 13                	mov    (%rbx),%edx
ffffffff8020415d:	29 f2                	sub    %esi,%edx
ffffffff8020415f:	89 10                	mov    %edx,(%rax)
ffffffff80204161:	48 8b 41 08          	mov    0x8(%rcx),%rax
ffffffff80204165:	48 8b 53 08          	mov    0x8(%rbx),%rdx
ffffffff80204169:	48 89 50 08          	mov    %rdx,0x8(%rax)
ffffffff8020416d:	89 33                	mov    %esi,(%rbx)
ffffffff8020416f:	48 89 0d ba 01 06 00 	mov    %rcx,393658(%rip)        # ffffffff80264330 <slobfree>
ffffffff80204176:	48 89 d8             	mov    %rbx,%rax
ffffffff80204179:	eb 4a                	jmp    ffffffff802041c5 <slob_alloc+0x11c>
ffffffff8020417b:	48 3b 1d ae 01 06 00 	cmp    393646(%rip),%rbx        # ffffffff80264330 <slobfree>
ffffffff80204182:	75 29                	jne    ffffffff802041ad <slob_alloc+0x104>
ffffffff80204184:	81 7c 24 14 00 10 00 	cmpl   $0x1000,0x14(%rsp)
ffffffff8020418b:	00 
ffffffff8020418c:	74 2b                	je     ffffffff802041b9 <slob_alloc+0x110>
ffffffff8020418e:	bf 00 00 00 00       	mov    $0x0,%edi
ffffffff80204193:	e8 52 05 00 00       	callq  ffffffff802046ea <vmmgr_alloc_page>
ffffffff80204198:	48 89 c3             	mov    %rax,%rbx
ffffffff8020419b:	be 00 10 00 00       	mov    $0x1000,%esi
ffffffff802041a0:	48 89 c7             	mov    %rax,%rdi
ffffffff802041a3:	e8 58 fe ff ff       	callq  ffffffff80204000 <slob_free>
ffffffff802041a8:	48 85 db             	test   %rbx,%rbx
ffffffff802041ab:	74 13                	je     ffffffff802041c0 <slob_alloc+0x117>
ffffffff802041ad:	48 89 d9             	mov    %rbx,%rcx
ffffffff802041b0:	48 8b 5b 08          	mov    0x8(%rbx),%rbx
ffffffff802041b4:	e9 3d ff ff ff       	jmpq   ffffffff802040f6 <slob_alloc+0x4d>
ffffffff802041b9:	b8 00 00 00 00       	mov    $0x0,%eax
ffffffff802041be:	eb 05                	jmp    ffffffff802041c5 <slob_alloc+0x11c>
ffffffff802041c0:	b8 00 00 00 00       	mov    $0x0,%eax
ffffffff802041c5:	48 83 c4 28          	add    $0x28,%rsp
ffffffff802041c9:	5b                   	pop    %rbx
ffffffff802041ca:	5d                   	pop    %rbp
ffffffff802041cb:	41 5c                	pop    %r12
ffffffff802041cd:	41 5d                	pop    %r13
ffffffff802041cf:	41 5e                	pop    %r14
ffffffff802041d1:	41 5f                	pop    %r15
ffffffff802041d3:	c3                   	retq   

ffffffff802041d4 <vmmgr_get_total_blocks>:
ffffffff802041d4:	48 8b 05 c5 4e 00 00 	mov    20165(%rip),%rax        # ffffffff802090a0 <__FUNCTION__.1376+0x3a40>
ffffffff802041db:	48 8b 00             	mov    (%rax),%rax
ffffffff802041de:	c3                   	retq   

ffffffff802041df <vmmgr_get_used_blocks>:
ffffffff802041df:	48 8b 05 fa 4f 00 00 	mov    20474(%rip),%rax        # ffffffff802091e0 <__FUNCTION__.1376+0x3b80>
ffffffff802041e6:	48 8b 00             	mov    (%rax),%rax
ffffffff802041e9:	c3                   	retq   

ffffffff802041ea <vmmgr_get_total_usable_memory>:
ffffffff802041ea:	48 8b 05 27 4e 00 00 	mov    20007(%rip),%rax        # ffffffff80209018 <__FUNCTION__.1376+0x39b8>
ffffffff802041f1:	48 8b 00             	mov    (%rax),%rax
ffffffff802041f4:	c3                   	retq   

ffffffff802041f5 <vmmgr_get_total_usable_blocks>:
ffffffff802041f5:	53                   	push   %rbx
ffffffff802041f6:	b8 00 00 00 00       	mov    $0x0,%eax
ffffffff802041fb:	e8 d4 ff ff ff       	callq  ffffffff802041d4 <vmmgr_get_total_blocks>
ffffffff80204200:	48 89 c3             	mov    %rax,%rbx
ffffffff80204203:	b8 00 00 00 00       	mov    $0x0,%eax
ffffffff80204208:	e8 d2 ff ff ff       	callq  ffffffff802041df <vmmgr_get_used_blocks>
ffffffff8020420d:	48 29 c3             	sub    %rax,%rbx
ffffffff80204210:	48 89 d8             	mov    %rbx,%rax
ffffffff80204213:	5b                   	pop    %rbx
ffffffff80204214:	c3                   	retq   

ffffffff80204215 <vmmgr_set_block>:
ffffffff80204215:	8d 57 3f             	lea    0x3f(%rdi),%edx
ffffffff80204218:	85 ff                	test   %edi,%edi
ffffffff8020421a:	0f 49 d7             	cmovns %edi,%edx
ffffffff8020421d:	c1 fa 06             	sar    $0x6,%edx
ffffffff80204220:	48 63 d2             	movslq %edx,%rdx
ffffffff80204223:	48 8d 05 56 85 00 00 	lea    34134(%rip),%rax        # ffffffff8020c780 <vmmgr_memory_map>
ffffffff8020422a:	89 fe                	mov    %edi,%esi
ffffffff8020422c:	c1 fe 1f             	sar    $0x1f,%esi
ffffffff8020422f:	c1 ee 1a             	shr    $0x1a,%esi
ffffffff80204232:	8d 0c 37             	lea    (%rdi,%rsi,1),%ecx
ffffffff80204235:	83 e1 3f             	and    $0x3f,%ecx
ffffffff80204238:	29 f1                	sub    %esi,%ecx
ffffffff8020423a:	be 01 00 00 00       	mov    $0x1,%esi
ffffffff8020423f:	d3 e6                	shl    %cl,%esi
ffffffff80204241:	48 63 f6             	movslq %esi,%rsi
ffffffff80204244:	48 09 34 d0          	or     %rsi,(%rax,%rdx,8)
ffffffff80204248:	c3                   	retq   

ffffffff80204249 <vmmgr_is_block_free>:
ffffffff80204249:	89 fa                	mov    %edi,%edx
ffffffff8020424b:	c1 fa 1f             	sar    $0x1f,%edx
ffffffff8020424e:	c1 ea 1a             	shr    $0x1a,%edx
ffffffff80204251:	8d 0c 17             	lea    (%rdi,%rdx,1),%ecx
ffffffff80204254:	83 e1 3f             	and    $0x3f,%ecx
ffffffff80204257:	29 d1                	sub    %edx,%ecx
ffffffff80204259:	b8 01 00 00 00       	mov    $0x1,%eax
ffffffff8020425e:	d3 e0                	shl    %cl,%eax
ffffffff80204260:	8d 57 3f             	lea    0x3f(%rdi),%edx
ffffffff80204263:	85 ff                	test   %edi,%edi
ffffffff80204265:	0f 48 fa             	cmovs  %edx,%edi
ffffffff80204268:	c1 ff 06             	sar    $0x6,%edi
ffffffff8020426b:	48 63 ff             	movslq %edi,%rdi
ffffffff8020426e:	48 8d 15 0b 85 00 00 	lea    34059(%rip),%rdx        # ffffffff8020c780 <vmmgr_memory_map>
ffffffff80204275:	23 04 fa             	and    (%rdx,%rdi,8),%eax
ffffffff80204278:	c3                   	retq   

ffffffff80204279 <vmmgr_unset_block>:
ffffffff80204279:	8d 57 3f             	lea    0x3f(%rdi),%edx
ffffffff8020427c:	85 ff                	test   %edi,%edi
ffffffff8020427e:	0f 49 d7             	cmovns %edi,%edx
ffffffff80204281:	c1 fa 06             	sar    $0x6,%edx
ffffffff80204284:	48 63 d2             	movslq %edx,%rdx
ffffffff80204287:	48 8d 05 f2 84 00 00 	lea    34034(%rip),%rax        # ffffffff8020c780 <vmmgr_memory_map>
ffffffff8020428e:	89 fe                	mov    %edi,%esi
ffffffff80204290:	c1 fe 1f             	sar    $0x1f,%esi
ffffffff80204293:	c1 ee 1a             	shr    $0x1a,%esi
ffffffff80204296:	8d 0c 37             	lea    (%rdi,%rsi,1),%ecx
ffffffff80204299:	83 e1 3f             	and    $0x3f,%ecx
ffffffff8020429c:	29 f1                	sub    %esi,%ecx
ffffffff8020429e:	be fe ff ff ff       	mov    $0xfffffffe,%esi
ffffffff802042a3:	d3 c6                	rol    %cl,%esi
ffffffff802042a5:	48 63 f6             	movslq %esi,%rsi
ffffffff802042a8:	48 21 34 d0          	and    %rsi,(%rax,%rdx,8)
ffffffff802042ac:	c3                   	retq   

ffffffff802042ad <vmmgr_get_first_free>:
ffffffff802042ad:	55                   	push   %rbp
ffffffff802042ae:	53                   	push   %rbx
ffffffff802042af:	48 83 ec 08          	sub    $0x8,%rsp
ffffffff802042b3:	bb 00 00 00 00       	mov    $0x0,%ebx
ffffffff802042b8:	eb 45                	jmp    ffffffff802042ff <vmmgr_get_first_free+0x52>
ffffffff802042ba:	48 8d 05 bf 84 00 00 	lea    33983(%rip),%rax        # ffffffff8020c780 <vmmgr_memory_map>
ffffffff802042c1:	48 8b 14 d8          	mov    (%rax,%rbx,8),%rdx
ffffffff802042c5:	48 83 fa ff          	cmp    $0xffffffffffffffff,%rdx
ffffffff802042c9:	74 31                	je     ffffffff802042fc <vmmgr_get_first_free+0x4f>
ffffffff802042cb:	f6 c2 01             	test   $0x1,%dl
ffffffff802042ce:	74 17                	je     ffffffff802042e7 <vmmgr_get_first_free+0x3a>
ffffffff802042d0:	b9 01 00 00 00       	mov    $0x1,%ecx
ffffffff802042d5:	be 01 00 00 00       	mov    $0x1,%esi
ffffffff802042da:	89 f0                	mov    %esi,%eax
ffffffff802042dc:	d3 e0                	shl    %cl,%eax
ffffffff802042de:	48 98                	cltq   
ffffffff802042e0:	48 85 c2             	test   %rax,%rdx
ffffffff802042e3:	75 10                	jne    ffffffff802042f5 <vmmgr_get_first_free+0x48>
ffffffff802042e5:	eb 05                	jmp    ffffffff802042ec <vmmgr_get_first_free+0x3f>
ffffffff802042e7:	b9 00 00 00 00       	mov    $0x0,%ecx
ffffffff802042ec:	89 e8                	mov    %ebp,%eax
ffffffff802042ee:	c1 e0 06             	shl    $0x6,%eax
ffffffff802042f1:	01 c8                	add    %ecx,%eax
ffffffff802042f3:	eb 24                	jmp    ffffffff80204319 <vmmgr_get_first_free+0x6c>
ffffffff802042f5:	ff c1                	inc    %ecx
ffffffff802042f7:	83 f9 40             	cmp    $0x40,%ecx
ffffffff802042fa:	75 de                	jne    ffffffff802042da <vmmgr_get_first_free+0x2d>
ffffffff802042fc:	48 ff c3             	inc    %rbx
ffffffff802042ff:	89 dd                	mov    %ebx,%ebp
ffffffff80204301:	b8 00 00 00 00       	mov    $0x0,%eax
ffffffff80204306:	e8 c9 fe ff ff       	callq  ffffffff802041d4 <vmmgr_get_total_blocks>
ffffffff8020430b:	48 c1 e8 06          	shr    $0x6,%rax
ffffffff8020430f:	48 39 c3             	cmp    %rax,%rbx
ffffffff80204312:	72 a6                	jb     ffffffff802042ba <vmmgr_get_first_free+0xd>
ffffffff80204314:	b8 ff ff ff ff       	mov    $0xffffffff,%eax
ffffffff80204319:	48 83 c4 08          	add    $0x8,%rsp
ffffffff8020431d:	5b                   	pop    %rbx
ffffffff8020431e:	5d                   	pop    %rbp
ffffffff8020431f:	c3                   	retq   

ffffffff80204320 <vmmgr_alloc_block>:
ffffffff80204320:	48 83 ec 08          	sub    $0x8,%rsp
ffffffff80204324:	b8 00 00 00 00       	mov    $0x0,%eax
ffffffff80204329:	e8 c7 fe ff ff       	callq  ffffffff802041f5 <vmmgr_get_total_usable_blocks>
ffffffff8020432e:	48 85 c0             	test   %rax,%rax
ffffffff80204331:	75 13                	jne    ffffffff80204346 <vmmgr_alloc_block+0x26>
ffffffff80204333:	48 8d 3d e6 16 00 00 	lea    5862(%rip),%rdi        # ffffffff80205a20 <__FUNCTION__.1376+0x3c0>
ffffffff8020433a:	e8 9c e7 ff ff       	callq  ffffffff80202adb <printf>
ffffffff8020433f:	b8 00 00 00 00       	mov    $0x0,%eax
ffffffff80204344:	eb 76                	jmp    ffffffff802043bc <vmmgr_alloc_block+0x9c>
ffffffff80204346:	b8 00 00 00 00       	mov    $0x0,%eax
ffffffff8020434b:	e8 5d ff ff ff       	callq  ffffffff802042ad <vmmgr_get_first_free>
ffffffff80204350:	48 63 d0             	movslq %eax,%rdx
ffffffff80204353:	48 83 fa ff          	cmp    $0xffffffffffffffff,%rdx
ffffffff80204357:	75 18                	jne    ffffffff80204371 <vmmgr_alloc_block+0x51>
ffffffff80204359:	48 8d 3d f0 16 00 00 	lea    5872(%rip),%rdi        # ffffffff80205a50 <__FUNCTION__.1376+0x3f0>
ffffffff80204360:	b8 00 00 00 00       	mov    $0x0,%eax
ffffffff80204365:	e8 71 e7 ff ff       	callq  ffffffff80202adb <printf>
ffffffff8020436a:	b8 00 00 00 00       	mov    $0x0,%eax
ffffffff8020436f:	eb 4b                	jmp    ffffffff802043bc <vmmgr_alloc_block+0x9c>
ffffffff80204371:	8d 78 3f             	lea    0x3f(%rax),%edi
ffffffff80204374:	85 c0                	test   %eax,%eax
ffffffff80204376:	0f 49 f8             	cmovns %eax,%edi
ffffffff80204379:	c1 ff 06             	sar    $0x6,%edi
ffffffff8020437c:	48 63 ff             	movslq %edi,%rdi
ffffffff8020437f:	48 8d 35 fa 83 00 00 	lea    33786(%rip),%rsi        # ffffffff8020c780 <vmmgr_memory_map>
ffffffff80204386:	41 89 c0             	mov    %eax,%r8d
ffffffff80204389:	41 c1 f8 1f          	sar    $0x1f,%r8d
ffffffff8020438d:	41 c1 e8 1a          	shr    $0x1a,%r8d
ffffffff80204391:	42 8d 0c 00          	lea    (%rax,%r8,1),%ecx
ffffffff80204395:	83 e1 3f             	and    $0x3f,%ecx
ffffffff80204398:	44 29 c1             	sub    %r8d,%ecx
ffffffff8020439b:	41 b8 01 00 00 00    	mov    $0x1,%r8d
ffffffff802043a1:	41 d3 e0             	shl    %cl,%r8d
ffffffff802043a4:	4d 63 c0             	movslq %r8d,%r8
ffffffff802043a7:	4c 09 04 fe          	or     %r8,(%rsi,%rdi,8)
ffffffff802043ab:	48 8b 05 2e 4e 00 00 	mov    20014(%rip),%rax        # ffffffff802091e0 <__FUNCTION__.1376+0x3b80>
ffffffff802043b2:	48 ff 00             	incq   (%rax)
ffffffff802043b5:	48 89 d0             	mov    %rdx,%rax
ffffffff802043b8:	48 c1 e0 0c          	shl    $0xc,%rax
ffffffff802043bc:	48 83 c4 08          	add    $0x8,%rsp
ffffffff802043c0:	c3                   	retq   

ffffffff802043c1 <vmmgr_free_block>:
ffffffff802043c1:	48 89 f9             	mov    %rdi,%rcx
ffffffff802043c4:	48 c1 e9 0c          	shr    $0xc,%rcx
ffffffff802043c8:	48 85 ff             	test   %rdi,%rdi
ffffffff802043cb:	75 17                	jne    ffffffff802043e4 <vmmgr_free_block+0x23>
ffffffff802043cd:	48 83 ec 08          	sub    $0x8,%rsp
ffffffff802043d1:	48 8d 3d a0 16 00 00 	lea    5792(%rip),%rdi        # ffffffff80205a78 <__FUNCTION__.1376+0x418>
ffffffff802043d8:	b8 00 00 00 00       	mov    $0x0,%eax
ffffffff802043dd:	e8 f9 e6 ff ff       	callq  ffffffff80202adb <printf>
ffffffff802043e2:	eb 3d                	jmp    ffffffff80204421 <vmmgr_free_block+0x60>
ffffffff802043e4:	8d 51 3f             	lea    0x3f(%rcx),%edx
ffffffff802043e7:	85 c9                	test   %ecx,%ecx
ffffffff802043e9:	0f 49 d1             	cmovns %ecx,%edx
ffffffff802043ec:	c1 fa 06             	sar    $0x6,%edx
ffffffff802043ef:	48 63 d2             	movslq %edx,%rdx
ffffffff802043f2:	48 8d 05 87 83 00 00 	lea    33671(%rip),%rax        # ffffffff8020c780 <vmmgr_memory_map>
ffffffff802043f9:	89 ce                	mov    %ecx,%esi
ffffffff802043fb:	c1 fe 1f             	sar    $0x1f,%esi
ffffffff802043fe:	c1 ee 1a             	shr    $0x1a,%esi
ffffffff80204401:	01 f1                	add    %esi,%ecx
ffffffff80204403:	83 e1 3f             	and    $0x3f,%ecx
ffffffff80204406:	29 f1                	sub    %esi,%ecx
ffffffff80204408:	be fe ff ff ff       	mov    $0xfffffffe,%esi
ffffffff8020440d:	d3 c6                	rol    %cl,%esi
ffffffff8020440f:	48 63 f6             	movslq %esi,%rsi
ffffffff80204412:	48 21 34 d0          	and    %rsi,(%rax,%rdx,8)
ffffffff80204416:	48 8b 05 c3 4d 00 00 	mov    19907(%rip),%rax        # ffffffff802091e0 <__FUNCTION__.1376+0x3b80>
ffffffff8020441d:	48 ff 08             	decq   (%rax)
ffffffff80204420:	c3                   	retq   
ffffffff80204421:	48 83 c4 08          	add    $0x8,%rsp
ffffffff80204425:	c3                   	retq   

ffffffff80204426 <vmmgr_page_alloc>:
ffffffff80204426:	48 83 ec 08          	sub    $0x8,%rsp
ffffffff8020442a:	b8 00 00 00 00       	mov    $0x0,%eax
ffffffff8020442f:	e8 ec fe ff ff       	callq  ffffffff80204320 <vmmgr_alloc_block>
ffffffff80204434:	48 2d 00 00 c0 7e    	sub    $0x7ec00000,%rax
ffffffff8020443a:	48 83 c4 08          	add    $0x8,%rsp
ffffffff8020443e:	c3                   	retq   

ffffffff8020443f <vmmgr_print_stats>:
ffffffff8020443f:	48 83 ec 08          	sub    $0x8,%rsp
ffffffff80204443:	b8 00 00 00 00       	mov    $0x0,%eax
ffffffff80204448:	e8 9d fd ff ff       	callq  ffffffff802041ea <vmmgr_get_total_usable_memory>
ffffffff8020444d:	48 89 c6             	mov    %rax,%rsi
ffffffff80204450:	48 8d 3d 41 16 00 00 	lea    5697(%rip),%rdi        # ffffffff80205a98 <__FUNCTION__.1376+0x438>
ffffffff80204457:	b8 00 00 00 00       	mov    $0x0,%eax
ffffffff8020445c:	e8 7a e6 ff ff       	callq  ffffffff80202adb <printf>
ffffffff80204461:	b8 00 00 00 00       	mov    $0x0,%eax
ffffffff80204466:	e8 69 fd ff ff       	callq  ffffffff802041d4 <vmmgr_get_total_blocks>
ffffffff8020446b:	48 89 c6             	mov    %rax,%rsi
ffffffff8020446e:	48 8d 3d df 3c 00 00 	lea    15583(%rip),%rdi        # ffffffff80208154 <__FUNCTION__.1376+0x2af4>
ffffffff80204475:	b8 00 00 00 00       	mov    $0x0,%eax
ffffffff8020447a:	e8 5c e6 ff ff       	callq  ffffffff80202adb <printf>
ffffffff8020447f:	b8 00 00 00 00       	mov    $0x0,%eax
ffffffff80204484:	e8 56 fd ff ff       	callq  ffffffff802041df <vmmgr_get_used_blocks>
ffffffff80204489:	48 89 c6             	mov    %rax,%rsi
ffffffff8020448c:	48 8d 3d 3d 15 00 00 	lea    5437(%rip),%rdi        # ffffffff802059d0 <__FUNCTION__.1376+0x370>
ffffffff80204493:	b8 00 00 00 00       	mov    $0x0,%eax
ffffffff80204498:	e8 3e e6 ff ff       	callq  ffffffff80202adb <printf>
ffffffff8020449d:	b8 00 00 00 00       	mov    $0x0,%eax
ffffffff802044a2:	e8 4e fd ff ff       	callq  ffffffff802041f5 <vmmgr_get_total_usable_blocks>
ffffffff802044a7:	48 89 c6             	mov    %rax,%rsi
ffffffff802044aa:	48 8d 3d 07 16 00 00 	lea    5639(%rip),%rdi        # ffffffff80205ab8 <__FUNCTION__.1376+0x458>
ffffffff802044b1:	b8 00 00 00 00       	mov    $0x0,%eax
ffffffff802044b6:	e8 20 e6 ff ff       	callq  ffffffff80202adb <printf>
ffffffff802044bb:	48 83 c4 08          	add    $0x8,%rsp
ffffffff802044bf:	c3                   	retq   

ffffffff802044c0 <vmmgr_page_allocator_init>:
ffffffff802044c0:	48 8b 05 d9 4b 00 00 	mov    19417(%rip),%rax        # ffffffff802090a0 <__FUNCTION__.1376+0x3a40>
ffffffff802044c7:	48 8b 10             	mov    (%rax),%rdx
ffffffff802044ca:	b8 00 18 00 00       	mov    $0x1800,%eax
ffffffff802044cf:	48 ff c8             	dec    %rax
ffffffff802044d2:	75 fb                	jne    ffffffff802044cf <vmmgr_page_allocator_init+0xf>
ffffffff802044d4:	48 83 ec 08          	sub    $0x8,%rsp
ffffffff802044d8:	48 8d 82 00 18 00 00 	lea    0x1800(%rdx),%rax
ffffffff802044df:	48 8b 15 ba 4b 00 00 	mov    19386(%rip),%rdx        # ffffffff802090a0 <__FUNCTION__.1376+0x3a40>
ffffffff802044e6:	48 89 02             	mov    %rax,(%rdx)
ffffffff802044e9:	48 c1 e0 0c          	shl    $0xc,%rax
ffffffff802044ed:	48 c1 e8 14          	shr    $0x14,%rax
ffffffff802044f1:	48 8b 15 20 4b 00 00 	mov    19232(%rip),%rdx        # ffffffff80209018 <__FUNCTION__.1376+0x39b8>
ffffffff802044f8:	48 89 02             	mov    %rax,(%rdx)
ffffffff802044fb:	b8 00 00 00 00       	mov    $0x0,%eax
ffffffff80204500:	e8 3a ff ff ff       	callq  ffffffff8020443f <vmmgr_print_stats>
ffffffff80204505:	48 83 c4 08          	add    $0x8,%rsp
ffffffff80204509:	c3                   	retq   
	...

ffffffff8020450c <pd_entry_add_attrib>:
ffffffff8020450c:	48 09 37             	or     %rsi,(%rdi)
ffffffff8020450f:	c3                   	retq   

ffffffff80204510 <pd_entry_del_attrib>:
ffffffff80204510:	48 f7 d6             	not    %rsi
ffffffff80204513:	48 21 37             	and    %rsi,(%rdi)
ffffffff80204516:	c3                   	retq   

ffffffff80204517 <pd_entry_set_frame>:
ffffffff80204517:	48 b8 ff 0f 00 00 00 	mov    $0xfffff00000000fff,%rax
ffffffff8020451e:	f0 ff ff 
ffffffff80204521:	48 23 07             	and    (%rdi),%rax
ffffffff80204524:	48 09 c6             	or     %rax,%rsi
ffffffff80204527:	48 89 37             	mov    %rsi,(%rdi)
ffffffff8020452a:	c3                   	retq   

ffffffff8020452b <pd_entry_is_present>:
ffffffff8020452b:	89 f8                	mov    %edi,%eax
ffffffff8020452d:	83 e0 01             	and    $0x1,%eax
ffffffff80204530:	c3                   	retq   

ffffffff80204531 <pd_entry_is_writable>:
ffffffff80204531:	89 f8                	mov    %edi,%eax
ffffffff80204533:	83 e0 02             	and    $0x2,%eax
ffffffff80204536:	c3                   	retq   

ffffffff80204537 <pd_entry_pfn>:
ffffffff80204537:	89 f8                	mov    %edi,%eax
ffffffff80204539:	25 00 f0 ff ff       	and    $0xfffff000,%eax
ffffffff8020453e:	c3                   	retq   

ffffffff8020453f <pd_entry_is_user>:
ffffffff8020453f:	89 f8                	mov    %edi,%eax
ffffffff80204541:	83 e0 04             	and    $0x4,%eax
ffffffff80204544:	c3                   	retq   

ffffffff80204545 <pd_entry_is_4mb>:
ffffffff80204545:	89 f8                	mov    %edi,%eax
ffffffff80204547:	25 80 00 00 00       	and    $0x80,%eax
ffffffff8020454c:	c3                   	retq   
ffffffff8020454d:	00 00                	add    %al,(%rax)
	...

ffffffff80204550 <pdpe_entry_add_attrib>:
ffffffff80204550:	48 09 37             	or     %rsi,(%rdi)
ffffffff80204553:	c3                   	retq   

ffffffff80204554 <pdpe_entry_del_attrib>:
ffffffff80204554:	48 f7 d6             	not    %rsi
ffffffff80204557:	48 21 37             	and    %rsi,(%rdi)
ffffffff8020455a:	c3                   	retq   

ffffffff8020455b <pdpe_entry_set_frame>:
ffffffff8020455b:	48 b8 ff 0f 00 00 00 	mov    $0xfffff00000000fff,%rax
ffffffff80204562:	f0 ff ff 
ffffffff80204565:	48 23 07             	and    (%rdi),%rax
ffffffff80204568:	48 09 c6             	or     %rax,%rsi
ffffffff8020456b:	48 89 37             	mov    %rsi,(%rdi)
ffffffff8020456e:	c3                   	retq   

ffffffff8020456f <pdpe_entry_is_present>:
ffffffff8020456f:	89 f8                	mov    %edi,%eax
ffffffff80204571:	83 e0 01             	and    $0x1,%eax
ffffffff80204574:	c3                   	retq   

ffffffff80204575 <pdpe_entry_is_writable>:
ffffffff80204575:	89 f8                	mov    %edi,%eax
ffffffff80204577:	83 e0 02             	and    $0x2,%eax
ffffffff8020457a:	c3                   	retq   

ffffffff8020457b <pdpe_entry_pfn>:
ffffffff8020457b:	89 f8                	mov    %edi,%eax
ffffffff8020457d:	25 00 f0 ff ff       	and    $0xfffff000,%eax
ffffffff80204582:	c3                   	retq   

ffffffff80204583 <pdpe_entry_is_user>:
ffffffff80204583:	89 f8                	mov    %edi,%eax
ffffffff80204585:	83 e0 04             	and    $0x4,%eax
ffffffff80204588:	c3                   	retq   

ffffffff80204589 <pdpe_entry_is_4mb>:
ffffffff80204589:	89 f8                	mov    %edi,%eax
ffffffff8020458b:	25 80 00 00 00       	and    $0x80,%eax
ffffffff80204590:	c3                   	retq   
ffffffff80204591:	00 00                	add    %al,(%rax)
	...

ffffffff80204594 <pml4e_entry_add_attrib>:
ffffffff80204594:	48 09 37             	or     %rsi,(%rdi)
ffffffff80204597:	c3                   	retq   

ffffffff80204598 <pml4e_entry_del_attrib>:
ffffffff80204598:	48 f7 d6             	not    %rsi
ffffffff8020459b:	48 21 37             	and    %rsi,(%rdi)
ffffffff8020459e:	c3                   	retq   

ffffffff8020459f <pml4e_entry_set_frame>:
ffffffff8020459f:	48 b8 ff 0f 00 00 00 	mov    $0xfffff00000000fff,%rax
ffffffff802045a6:	f0 ff ff 
ffffffff802045a9:	48 23 07             	and    (%rdi),%rax
ffffffff802045ac:	48 09 c6             	or     %rax,%rsi
ffffffff802045af:	48 89 37             	mov    %rsi,(%rdi)
ffffffff802045b2:	c3                   	retq   

ffffffff802045b3 <pml4e_entry_is_present>:
ffffffff802045b3:	89 f8                	mov    %edi,%eax
ffffffff802045b5:	83 e0 01             	and    $0x1,%eax
ffffffff802045b8:	c3                   	retq   

ffffffff802045b9 <pml4e_entry_is_writable>:
ffffffff802045b9:	89 f8                	mov    %edi,%eax
ffffffff802045bb:	83 e0 02             	and    $0x2,%eax
ffffffff802045be:	c3                   	retq   

ffffffff802045bf <pml4e_entry_pfn>:
ffffffff802045bf:	89 f8                	mov    %edi,%eax
ffffffff802045c1:	25 00 f0 ff ff       	and    $0xfffff000,%eax
ffffffff802045c6:	c3                   	retq   

ffffffff802045c7 <pml4e_entry_is_user>:
ffffffff802045c7:	89 f8                	mov    %edi,%eax
ffffffff802045c9:	83 e0 04             	and    $0x4,%eax
ffffffff802045cc:	c3                   	retq   

ffffffff802045cd <pml4e_entry_is_4mb>:
ffffffff802045cd:	89 f8                	mov    %edi,%eax
ffffffff802045cf:	25 80 00 00 00       	and    $0x80,%eax
ffffffff802045d4:	c3                   	retq   
ffffffff802045d5:	00 00                	add    %al,(%rax)
	...

ffffffff802045d8 <pt_entry_add_attrib>:
ffffffff802045d8:	48 09 37             	or     %rsi,(%rdi)
ffffffff802045db:	c3                   	retq   

ffffffff802045dc <pt_entry_del_attrib>:
ffffffff802045dc:	48 f7 d6             	not    %rsi
ffffffff802045df:	48 21 37             	and    %rsi,(%rdi)
ffffffff802045e2:	c3                   	retq   

ffffffff802045e3 <pt_entry_set_frame>:
ffffffff802045e3:	48 b8 ff 0f 00 00 00 	mov    $0xfffff00000000fff,%rax
ffffffff802045ea:	f0 ff ff 
ffffffff802045ed:	48 23 07             	and    (%rdi),%rax
ffffffff802045f0:	48 09 c6             	or     %rax,%rsi
ffffffff802045f3:	48 89 37             	mov    %rsi,(%rdi)
ffffffff802045f6:	c3                   	retq   

ffffffff802045f7 <pt_entry_is_present>:
ffffffff802045f7:	89 f8                	mov    %edi,%eax
ffffffff802045f9:	83 e0 01             	and    $0x1,%eax
ffffffff802045fc:	c3                   	retq   

ffffffff802045fd <pt_entry_is_writable>:
ffffffff802045fd:	89 f8                	mov    %edi,%eax
ffffffff802045ff:	83 e0 02             	and    $0x2,%eax
ffffffff80204602:	c3                   	retq   

ffffffff80204603 <pt_entry_pfn>:
ffffffff80204603:	89 f8                	mov    %edi,%eax
ffffffff80204605:	25 00 f0 ff ff       	and    $0xfffff000,%eax
ffffffff8020460a:	c3                   	retq   

ffffffff8020460b <pt_entry_is_accessed>:
ffffffff8020460b:	89 f8                	mov    %edi,%eax
ffffffff8020460d:	83 e0 20             	and    $0x20,%eax
ffffffff80204610:	c3                   	retq   

ffffffff80204611 <pt_entry_is_user>:
ffffffff80204611:	89 f8                	mov    %edi,%eax
ffffffff80204613:	83 e0 04             	and    $0x4,%eax
ffffffff80204616:	c3                   	retq   

ffffffff80204617 <pt_entry_is_dirty>:
ffffffff80204617:	89 f8                	mov    %edi,%eax
ffffffff80204619:	83 e0 40             	and    $0x40,%eax
ffffffff8020461c:	c3                   	retq   
ffffffff8020461d:	00 00                	add    %al,(%rax)
	...

ffffffff80204620 <vmmgr_ptable_lookup_entry>:
ffffffff80204620:	48 85 ff             	test   %rdi,%rdi
ffffffff80204623:	74 10                	je     ffffffff80204635 <vmmgr_ptable_lookup_entry+0x15>
ffffffff80204625:	48 c1 ee 09          	shr    $0x9,%rsi
ffffffff80204629:	48 89 f0             	mov    %rsi,%rax
ffffffff8020462c:	25 f8 0f 00 00       	and    $0xff8,%eax
ffffffff80204631:	48 01 f8             	add    %rdi,%rax
ffffffff80204634:	c3                   	retq   
ffffffff80204635:	b8 00 00 00 00       	mov    $0x0,%eax
ffffffff8020463a:	c3                   	retq   

ffffffff8020463b <vmmgr_page_directory_lookup_entry>:
ffffffff8020463b:	48 85 ff             	test   %rdi,%rdi
ffffffff8020463e:	74 10                	je     ffffffff80204650 <vmmgr_page_directory_lookup_entry+0x15>
ffffffff80204640:	48 c1 ee 12          	shr    $0x12,%rsi
ffffffff80204644:	48 89 f0             	mov    %rsi,%rax
ffffffff80204647:	25 f8 0f 00 00       	and    $0xff8,%eax
ffffffff8020464c:	48 01 f8             	add    %rdi,%rax
ffffffff8020464f:	c3                   	retq   
ffffffff80204650:	b8 00 00 00 00       	mov    $0x0,%eax
ffffffff80204655:	c3                   	retq   

ffffffff80204656 <vmmgr_page_pointer_directory_lookup_entry>:
ffffffff80204656:	48 85 ff             	test   %rdi,%rdi
ffffffff80204659:	74 10                	je     ffffffff8020466b <vmmgr_page_pointer_directory_lookup_entry+0x15>
ffffffff8020465b:	48 c1 ee 1b          	shr    $0x1b,%rsi
ffffffff8020465f:	48 89 f0             	mov    %rsi,%rax
ffffffff80204662:	25 f8 0f 00 00       	and    $0xff8,%eax
ffffffff80204667:	48 01 f8             	add    %rdi,%rax
ffffffff8020466a:	c3                   	retq   
ffffffff8020466b:	b8 00 00 00 00       	mov    $0x0,%eax
ffffffff80204670:	c3                   	retq   

ffffffff80204671 <vmmgr_pml4_directory_lookup_entry>:
ffffffff80204671:	48 85 ff             	test   %rdi,%rdi
ffffffff80204674:	74 10                	je     ffffffff80204686 <vmmgr_pml4_directory_lookup_entry+0x15>
ffffffff80204676:	48 c1 ee 24          	shr    $0x24,%rsi
ffffffff8020467a:	48 89 f0             	mov    %rsi,%rax
ffffffff8020467d:	25 f8 0f 00 00       	and    $0xff8,%eax
ffffffff80204682:	48 01 f8             	add    %rdi,%rax
ffffffff80204685:	c3                   	retq   
ffffffff80204686:	b8 00 00 00 00       	mov    $0x0,%eax
ffffffff8020468b:	c3                   	retq   

ffffffff8020468c <vmmgr_switch_pml4_directory>:
ffffffff8020468c:	48 83 ec 08          	sub    $0x8,%rsp
ffffffff80204690:	48 85 ff             	test   %rdi,%rdi
ffffffff80204693:	75 1a                	jne    ffffffff802046af <vmmgr_switch_pml4_directory+0x23>
ffffffff80204695:	48 8d 15 44 14 00 00 	lea    5188(%rip),%rdx        # ffffffff80205ae0 <__FUNCTION__.1376+0x480>
ffffffff8020469c:	be 48 00 00 00       	mov    $0x48,%esi
ffffffff802046a1:	48 8d 3d b8 0f 00 00 	lea    4024(%rip),%rdi        # ffffffff80205660 <__FUNCTION__.1376>
ffffffff802046a8:	e8 87 e6 ff ff       	callq  ffffffff80202d34 <PANIC>
ffffffff802046ad:	eb 0f                	jmp    ffffffff802046be <vmmgr_switch_pml4_directory+0x32>
ffffffff802046af:	48 8b 05 1a 4b 00 00 	mov    19226(%rip),%rax        # ffffffff802091d0 <__FUNCTION__.1376+0x3b70>
ffffffff802046b6:	48 89 38             	mov    %rdi,(%rax)
ffffffff802046b9:	e8 26 0b 00 00       	callq  ffffffff802051e4 <vmmgr_load_pml4>
ffffffff802046be:	48 83 c4 08          	add    $0x8,%rsp
ffffffff802046c2:	c3                   	retq   

ffffffff802046c3 <vmmgr_get_current_pml4_directory>:
ffffffff802046c3:	48 8b 05 06 4b 00 00 	mov    19206(%rip),%rax        # ffffffff802091d0 <__FUNCTION__.1376+0x3b70>
ffffffff802046ca:	48 8b 00             	mov    (%rax),%rax
ffffffff802046cd:	c3                   	retq   

ffffffff802046ce <init_bump_addr>:
ffffffff802046ce:	48 8b 05 7b 49 00 00 	mov    18811(%rip),%rax        # ffffffff80209050 <__FUNCTION__.1376+0x39f0>
ffffffff802046d5:	48 8b 10             	mov    (%rax),%rdx
ffffffff802046d8:	48 81 c2 00 00 00 80 	add    $0xffffffff80000000,%rdx
ffffffff802046df:	48 8b 05 a2 4b 00 00 	mov    19362(%rip),%rax        # ffffffff80209288 <__FUNCTION__.1376+0x3c28>
ffffffff802046e6:	48 89 10             	mov    %rdx,(%rax)
ffffffff802046e9:	c3                   	retq   

ffffffff802046ea <vmmgr_alloc_page>:
ffffffff802046ea:	48 8b 0d 97 4b 00 00 	mov    19351(%rip),%rcx        # ffffffff80209288 <__FUNCTION__.1376+0x3c28>
ffffffff802046f1:	48 8b 31             	mov    (%rcx),%rsi
ffffffff802046f4:	48 8b 15 05 4a 00 00 	mov    18949(%rip),%rdx        # ffffffff80209100 <__FUNCTION__.1376+0x3aa0>
ffffffff802046fb:	0f b7 02             	movzwl (%rdx),%eax
ffffffff802046fe:	c1 e0 0c             	shl    $0xc,%eax
ffffffff80204701:	48 98                	cltq   
ffffffff80204703:	48 8d 84 06 00 10 00 	lea    0x1000(%rsi,%rax,1),%rax
ffffffff8020470a:	00 
ffffffff8020470b:	48 89 01             	mov    %rax,(%rcx)
ffffffff8020470e:	66 89 3a             	mov    %di,(%rdx)
ffffffff80204711:	c3                   	retq   

ffffffff80204712 <vmmgr_free_page>:
ffffffff80204712:	f3 c3                	repz retq 

ffffffff80204714 <set_pml4_entry_recurs>:
ffffffff80204714:	41 54                	push   %r12
ffffffff80204716:	55                   	push   %rbp
ffffffff80204717:	53                   	push   %rbx
ffffffff80204718:	48 89 fb             	mov    %rdi,%rbx
ffffffff8020471b:	48 89 f5             	mov    %rsi,%rbp
ffffffff8020471e:	41 89 d4             	mov    %edx,%r12d
ffffffff80204721:	be 01 00 00 00       	mov    $0x1,%esi
ffffffff80204726:	e8 69 fe ff ff       	callq  ffffffff80204594 <pml4e_entry_add_attrib>
ffffffff8020472b:	be 02 00 00 00       	mov    $0x2,%esi
ffffffff80204730:	48 89 df             	mov    %rbx,%rdi
ffffffff80204733:	e8 5c fe ff ff       	callq  ffffffff80204594 <pml4e_entry_add_attrib>
ffffffff80204738:	45 85 e4             	test   %r12d,%r12d
ffffffff8020473b:	74 0d                	je     ffffffff8020474a <set_pml4_entry_recurs+0x36>
ffffffff8020473d:	be 04 00 00 00       	mov    $0x4,%esi
ffffffff80204742:	48 89 df             	mov    %rbx,%rdi
ffffffff80204745:	e8 4a fe ff ff       	callq  ffffffff80204594 <pml4e_entry_add_attrib>
ffffffff8020474a:	48 89 ee             	mov    %rbp,%rsi
ffffffff8020474d:	48 89 df             	mov    %rbx,%rdi
ffffffff80204750:	e8 4a fe ff ff       	callq  ffffffff8020459f <pml4e_entry_set_frame>
ffffffff80204755:	5b                   	pop    %rbx
ffffffff80204756:	5d                   	pop    %rbp
ffffffff80204757:	41 5c                	pop    %r12
ffffffff80204759:	c3                   	retq   

ffffffff8020475a <set_page_entry>:
ffffffff8020475a:	41 54                	push   %r12
ffffffff8020475c:	55                   	push   %rbp
ffffffff8020475d:	53                   	push   %rbx
ffffffff8020475e:	48 89 fb             	mov    %rdi,%rbx
ffffffff80204761:	48 89 f5             	mov    %rsi,%rbp
ffffffff80204764:	41 89 d4             	mov    %edx,%r12d
ffffffff80204767:	be 01 00 00 00       	mov    $0x1,%esi
ffffffff8020476c:	e8 23 fe ff ff       	callq  ffffffff80204594 <pml4e_entry_add_attrib>
ffffffff80204771:	be 02 00 00 00       	mov    $0x2,%esi
ffffffff80204776:	48 89 df             	mov    %rbx,%rdi
ffffffff80204779:	e8 16 fe ff ff       	callq  ffffffff80204594 <pml4e_entry_add_attrib>
ffffffff8020477e:	45 85 e4             	test   %r12d,%r12d
ffffffff80204781:	74 0d                	je     ffffffff80204790 <set_page_entry+0x36>
ffffffff80204783:	be 04 00 00 00       	mov    $0x4,%esi
ffffffff80204788:	48 89 df             	mov    %rbx,%rdi
ffffffff8020478b:	e8 04 fe ff ff       	callq  ffffffff80204594 <pml4e_entry_add_attrib>
ffffffff80204790:	48 89 ee             	mov    %rbp,%rsi
ffffffff80204793:	48 89 df             	mov    %rbx,%rdi
ffffffff80204796:	e8 04 fe ff ff       	callq  ffffffff8020459f <pml4e_entry_set_frame>
ffffffff8020479b:	5b                   	pop    %rbx
ffffffff8020479c:	5d                   	pop    %rbp
ffffffff8020479d:	41 5c                	pop    %r12
ffffffff8020479f:	c3                   	retq   

ffffffff802047a0 <set_pml4_entry>:
ffffffff802047a0:	41 54                	push   %r12
ffffffff802047a2:	55                   	push   %rbp
ffffffff802047a3:	53                   	push   %rbx
ffffffff802047a4:	48 89 fb             	mov    %rdi,%rbx
ffffffff802047a7:	48 89 f5             	mov    %rsi,%rbp
ffffffff802047aa:	41 89 d4             	mov    %edx,%r12d
ffffffff802047ad:	be 01 00 00 00       	mov    $0x1,%esi
ffffffff802047b2:	e8 dd fd ff ff       	callq  ffffffff80204594 <pml4e_entry_add_attrib>
ffffffff802047b7:	be 02 00 00 00       	mov    $0x2,%esi
ffffffff802047bc:	48 89 df             	mov    %rbx,%rdi
ffffffff802047bf:	e8 d0 fd ff ff       	callq  ffffffff80204594 <pml4e_entry_add_attrib>
ffffffff802047c4:	45 85 e4             	test   %r12d,%r12d
ffffffff802047c7:	74 0d                	je     ffffffff802047d6 <set_pml4_entry+0x36>
ffffffff802047c9:	be 04 00 00 00       	mov    $0x4,%esi
ffffffff802047ce:	48 89 df             	mov    %rbx,%rdi
ffffffff802047d1:	e8 be fd ff ff       	callq  ffffffff80204594 <pml4e_entry_add_attrib>
ffffffff802047d6:	48 89 ee             	mov    %rbp,%rsi
ffffffff802047d9:	48 89 df             	mov    %rbx,%rdi
ffffffff802047dc:	e8 be fd ff ff       	callq  ffffffff8020459f <pml4e_entry_set_frame>
ffffffff802047e1:	5b                   	pop    %rbx
ffffffff802047e2:	5d                   	pop    %rbp
ffffffff802047e3:	41 5c                	pop    %r12
ffffffff802047e5:	c3                   	retq   

ffffffff802047e6 <set_pdpe_entry>:
ffffffff802047e6:	41 54                	push   %r12
ffffffff802047e8:	55                   	push   %rbp
ffffffff802047e9:	53                   	push   %rbx
ffffffff802047ea:	48 89 fb             	mov    %rdi,%rbx
ffffffff802047ed:	48 89 f5             	mov    %rsi,%rbp
ffffffff802047f0:	41 89 d4             	mov    %edx,%r12d
ffffffff802047f3:	be 01 00 00 00       	mov    $0x1,%esi
ffffffff802047f8:	e8 53 fd ff ff       	callq  ffffffff80204550 <pdpe_entry_add_attrib>
ffffffff802047fd:	be 02 00 00 00       	mov    $0x2,%esi
ffffffff80204802:	48 89 df             	mov    %rbx,%rdi
ffffffff80204805:	e8 46 fd ff ff       	callq  ffffffff80204550 <pdpe_entry_add_attrib>
ffffffff8020480a:	45 85 e4             	test   %r12d,%r12d
ffffffff8020480d:	74 0d                	je     ffffffff8020481c <set_pdpe_entry+0x36>
ffffffff8020480f:	be 04 00 00 00       	mov    $0x4,%esi
ffffffff80204814:	48 89 df             	mov    %rbx,%rdi
ffffffff80204817:	e8 34 fd ff ff       	callq  ffffffff80204550 <pdpe_entry_add_attrib>
ffffffff8020481c:	48 89 ee             	mov    %rbp,%rsi
ffffffff8020481f:	48 89 df             	mov    %rbx,%rdi
ffffffff80204822:	e8 34 fd ff ff       	callq  ffffffff8020455b <pdpe_entry_set_frame>
ffffffff80204827:	5b                   	pop    %rbx
ffffffff80204828:	5d                   	pop    %rbp
ffffffff80204829:	41 5c                	pop    %r12
ffffffff8020482b:	c3                   	retq   

ffffffff8020482c <set_pde_entry>:
ffffffff8020482c:	41 54                	push   %r12
ffffffff8020482e:	55                   	push   %rbp
ffffffff8020482f:	53                   	push   %rbx
ffffffff80204830:	48 89 fb             	mov    %rdi,%rbx
ffffffff80204833:	48 89 f5             	mov    %rsi,%rbp
ffffffff80204836:	41 89 d4             	mov    %edx,%r12d
ffffffff80204839:	be 01 00 00 00       	mov    $0x1,%esi
ffffffff8020483e:	e8 c9 fc ff ff       	callq  ffffffff8020450c <pd_entry_add_attrib>
ffffffff80204843:	be 02 00 00 00       	mov    $0x2,%esi
ffffffff80204848:	48 89 df             	mov    %rbx,%rdi
ffffffff8020484b:	e8 bc fc ff ff       	callq  ffffffff8020450c <pd_entry_add_attrib>
ffffffff80204850:	45 85 e4             	test   %r12d,%r12d
ffffffff80204853:	74 0d                	je     ffffffff80204862 <set_pde_entry+0x36>
ffffffff80204855:	be 04 00 00 00       	mov    $0x4,%esi
ffffffff8020485a:	48 89 df             	mov    %rbx,%rdi
ffffffff8020485d:	e8 aa fc ff ff       	callq  ffffffff8020450c <pd_entry_add_attrib>
ffffffff80204862:	48 89 ee             	mov    %rbp,%rsi
ffffffff80204865:	48 89 df             	mov    %rbx,%rdi
ffffffff80204868:	e8 aa fc ff ff       	callq  ffffffff80204517 <pd_entry_set_frame>
ffffffff8020486d:	5b                   	pop    %rbx
ffffffff8020486e:	5d                   	pop    %rbp
ffffffff8020486f:	41 5c                	pop    %r12
ffffffff80204871:	c3                   	retq   

ffffffff80204872 <get_pml4e_offset_recurse>:
ffffffff80204872:	48 c1 ef 24          	shr    $0x24,%rdi
ffffffff80204876:	48 89 f8             	mov    %rdi,%rax
ffffffff80204879:	25 f8 0f 00 00       	and    $0xff8,%eax
ffffffff8020487e:	48 8b 15 7b 49 00 00 	mov    18811(%rip),%rdx        # ffffffff80209200 <__FUNCTION__.1376+0x3ba0>
ffffffff80204885:	48 03 02             	add    (%rdx),%rax
ffffffff80204888:	c3                   	retq   

ffffffff80204889 <get_pdpe_offset_recurse>:
ffffffff80204889:	48 89 f8             	mov    %rdi,%rax
ffffffff8020488c:	48 c1 e8 27          	shr    $0x27,%rax
ffffffff80204890:	25 ff 01 00 00       	and    $0x1ff,%eax
ffffffff80204895:	48 ba 00 fc fb f7 ff 	mov    $0xffffff7fbfc00,%rdx
ffffffff8020489c:	ff 0f 00 
ffffffff8020489f:	48 01 d0             	add    %rdx,%rax
ffffffff802048a2:	48 c1 e0 0c          	shl    $0xc,%rax
ffffffff802048a6:	48 c1 ef 1b          	shr    $0x1b,%rdi
ffffffff802048aa:	81 e7 f8 0f 00 00    	and    $0xff8,%edi
ffffffff802048b0:	48 01 f8             	add    %rdi,%rax
ffffffff802048b3:	c3                   	retq   

ffffffff802048b4 <get_pde_offset_recurse>:
ffffffff802048b4:	48 89 f8             	mov    %rdi,%rax
ffffffff802048b7:	48 c1 e8 27          	shr    $0x27,%rax
ffffffff802048bb:	25 ff 01 00 00       	and    $0x1ff,%eax
ffffffff802048c0:	48 ba 00 fc fb ff ff 	mov    $0x7fffffbfc00,%rdx
ffffffff802048c7:	07 00 00 
ffffffff802048ca:	48 01 d0             	add    %rdx,%rax
ffffffff802048cd:	48 c1 e0 15          	shl    $0x15,%rax
ffffffff802048d1:	48 c1 e8 0c          	shr    $0xc,%rax
ffffffff802048d5:	48 89 fa             	mov    %rdi,%rdx
ffffffff802048d8:	48 c1 ea 1e          	shr    $0x1e,%rdx
ffffffff802048dc:	81 e2 ff 01 00 00    	and    $0x1ff,%edx
ffffffff802048e2:	48 01 d0             	add    %rdx,%rax
ffffffff802048e5:	48 c1 e0 0c          	shl    $0xc,%rax
ffffffff802048e9:	48 c1 ef 12          	shr    $0x12,%rdi
ffffffff802048ed:	81 e7 f8 0f 00 00    	and    $0xff8,%edi
ffffffff802048f3:	48 01 f8             	add    %rdi,%rax
ffffffff802048f6:	c3                   	retq   

ffffffff802048f7 <set_phys_virt_recurse>:
ffffffff802048f7:	48 83 ec 08          	sub    $0x8,%rsp
ffffffff802048fb:	48 89 f9             	mov    %rdi,%rcx
ffffffff802048fe:	48 89 f0             	mov    %rsi,%rax
ffffffff80204901:	48 89 f7             	mov    %rsi,%rdi
ffffffff80204904:	48 c1 ef 27          	shr    $0x27,%rdi
ffffffff80204908:	81 e7 ff 01 00 00    	and    $0x1ff,%edi
ffffffff8020490e:	48 be 00 fc ff ff 03 	mov    $0x3fffffc00,%rsi
ffffffff80204915:	00 00 00 
ffffffff80204918:	48 01 f7             	add    %rsi,%rdi
ffffffff8020491b:	48 c1 e7 1e          	shl    $0x1e,%rdi
ffffffff8020491f:	48 c1 ef 15          	shr    $0x15,%rdi
ffffffff80204923:	48 89 c6             	mov    %rax,%rsi
ffffffff80204926:	48 c1 ee 1e          	shr    $0x1e,%rsi
ffffffff8020492a:	81 e6 ff 01 00 00    	and    $0x1ff,%esi
ffffffff80204930:	48 01 f7             	add    %rsi,%rdi
ffffffff80204933:	48 c1 e7 15          	shl    $0x15,%rdi
ffffffff80204937:	48 c1 ef 0c          	shr    $0xc,%rdi
ffffffff8020493b:	48 89 c6             	mov    %rax,%rsi
ffffffff8020493e:	48 c1 ee 15          	shr    $0x15,%rsi
ffffffff80204942:	81 e6 ff 01 00 00    	and    $0x1ff,%esi
ffffffff80204948:	48 01 f7             	add    %rsi,%rdi
ffffffff8020494b:	48 c1 e7 0c          	shl    $0xc,%rdi
ffffffff8020494f:	48 c1 e8 09          	shr    $0x9,%rax
ffffffff80204953:	25 f8 0f 00 00       	and    $0xff8,%eax
ffffffff80204958:	48 01 c7             	add    %rax,%rdi
ffffffff8020495b:	48 89 ce             	mov    %rcx,%rsi
ffffffff8020495e:	e8 f7 fd ff ff       	callq  ffffffff8020475a <set_page_entry>
ffffffff80204963:	48 83 c4 08          	add    $0x8,%rsp
ffffffff80204967:	c3                   	retq   

ffffffff80204968 <get_pte_recurse>:
ffffffff80204968:	48 89 f8             	mov    %rdi,%rax
ffffffff8020496b:	48 c1 e8 27          	shr    $0x27,%rax
ffffffff8020496f:	25 ff 01 00 00       	and    $0x1ff,%eax
ffffffff80204974:	48 ba 00 fc ff ff 03 	mov    $0x3fffffc00,%rdx
ffffffff8020497b:	00 00 00 
ffffffff8020497e:	48 01 d0             	add    %rdx,%rax
ffffffff80204981:	48 c1 e0 1e          	shl    $0x1e,%rax
ffffffff80204985:	48 c1 e8 15          	shr    $0x15,%rax
ffffffff80204989:	48 89 fa             	mov    %rdi,%rdx
ffffffff8020498c:	48 c1 ea 1e          	shr    $0x1e,%rdx
ffffffff80204990:	81 e2 ff 01 00 00    	and    $0x1ff,%edx
ffffffff80204996:	48 01 d0             	add    %rdx,%rax
ffffffff80204999:	48 c1 e0 15          	shl    $0x15,%rax
ffffffff8020499d:	48 c1 e8 0c          	shr    $0xc,%rax
ffffffff802049a1:	48 89 fa             	mov    %rdi,%rdx
ffffffff802049a4:	48 c1 ea 15          	shr    $0x15,%rdx
ffffffff802049a8:	81 e2 ff 01 00 00    	and    $0x1ff,%edx
ffffffff802049ae:	48 01 d0             	add    %rdx,%rax
ffffffff802049b1:	48 c1 e0 0c          	shl    $0xc,%rax
ffffffff802049b5:	48 c1 ef 09          	shr    $0x9,%rdi
ffffffff802049b9:	81 e7 f8 0f 00 00    	and    $0xff8,%edi
ffffffff802049bf:	48 01 f8             	add    %rdi,%rax
ffffffff802049c2:	c3                   	retq   

ffffffff802049c3 <clone_pgdir>:
ffffffff802049c3:	4c 8d 87 00 10 00 00 	lea    0x1000(%rdi),%r8
ffffffff802049ca:	48 89 f8             	mov    %rdi,%rax
ffffffff802049cd:	48 89 f1             	mov    %rsi,%rcx
ffffffff802049d0:	48 29 f9             	sub    %rdi,%rcx
ffffffff802049d3:	48 8b 10             	mov    (%rax),%rdx
ffffffff802049d6:	48 89 14 01          	mov    %rdx,(%rcx,%rax,1)
ffffffff802049da:	48 83 c0 08          	add    $0x8,%rax
ffffffff802049de:	4c 39 c0             	cmp    %r8,%rax
ffffffff802049e1:	75 f0                	jne    ffffffff802049d3 <clone_pgdir+0x10>
ffffffff802049e3:	b8 00 00 00 80       	mov    $0x80000000,%eax
ffffffff802049e8:	48 01 f0             	add    %rsi,%rax
ffffffff802049eb:	48 83 c8 07          	or     $0x7,%rax
ffffffff802049ef:	48 89 86 f0 0f 00 00 	mov    %rax,0xff0(%rsi)
ffffffff802049f6:	c3                   	retq   

ffffffff802049f7 <copy_page_table>:
ffffffff802049f7:	41 57                	push   %r15
ffffffff802049f9:	41 56                	push   %r14
ffffffff802049fb:	41 55                	push   %r13
ffffffff802049fd:	41 54                	push   %r12
ffffffff802049ff:	55                   	push   %rbp
ffffffff80204a00:	53                   	push   %rbx
ffffffff80204a01:	48 83 ec 48          	sub    $0x48,%rsp
ffffffff80204a05:	89 54 24 18          	mov    %edx,0x18(%rsp)
ffffffff80204a09:	48 89 7c 24 20       	mov    %rdi,0x20(%rsp)
ffffffff80204a0e:	48 89 74 24 28       	mov    %rsi,0x28(%rsp)
ffffffff80204a13:	48 83 3f 00          	cmpq   $0x0,(%rdi)
ffffffff80204a17:	0f 84 8a 02 00 00    	je     ffffffff80204ca7 <copy_page_table+0x2b0>
ffffffff80204a1d:	48 89 fd             	mov    %rdi,%rbp
ffffffff80204a20:	bb 00 00 00 00       	mov    $0x0,%ebx
ffffffff80204a25:	66 c7 44 24 1e 00 00 	movw   $0x0,0x1e(%rsp)
ffffffff80204a2c:	49 bf 00 00 00 00 00 	mov    $0x4000000000000000,%r15
ffffffff80204a33:	00 00 40 
ffffffff80204a36:	be 01 00 00 00       	mov    $0x1,%esi
ffffffff80204a3b:	bf 00 00 00 00       	mov    $0x0,%edi
ffffffff80204a40:	e8 ba f4 ff ff       	callq  ffffffff80203eff <sub_malloc>
ffffffff80204a45:	49 89 c6             	mov    %rax,%r14
ffffffff80204a48:	48 89 44 24 30       	mov    %rax,0x30(%rsp)
ffffffff80204a4d:	ba 00 10 00 00       	mov    $0x1000,%edx
ffffffff80204a52:	be 00 00 00 00       	mov    $0x0,%esi
ffffffff80204a57:	48 89 c7             	mov    %rax,%rdi
ffffffff80204a5a:	e8 c4 dd ff ff       	callq  ffffffff80202823 <memset>
ffffffff80204a5f:	be 00 00 00 80       	mov    $0x80000000,%esi
ffffffff80204a64:	4c 01 f6             	add    %r14,%rsi
ffffffff80204a67:	4d 85 f6             	test   %r14,%r14
ffffffff80204a6a:	75 1d                	jne    ffffffff80204a89 <copy_page_table+0x92>
ffffffff80204a6c:	48 8d 15 9d 10 00 00 	lea    4253(%rip),%rdx        # ffffffff80205b10 <__FUNCTION__.1376+0x4b0>
ffffffff80204a73:	be d9 00 00 00       	mov    $0xd9,%esi
ffffffff80204a78:	48 8d 3d d1 0b 00 00 	lea    3025(%rip),%rdi        # ffffffff80205650 <__FUNCTION__.1473>
ffffffff80204a7f:	e8 b0 e2 ff ff       	callq  ffffffff80202d34 <PANIC>
ffffffff80204a84:	e9 1e 02 00 00       	jmpq   ffffffff80204ca7 <copy_page_table+0x2b0>
ffffffff80204a89:	48 8b 44 24 28       	mov    0x28(%rsp),%rax
ffffffff80204a8e:	48 8d 3c 18          	lea    (%rax,%rbx,1),%rdi
ffffffff80204a92:	8b 54 24 18          	mov    0x18(%rsp),%edx
ffffffff80204a96:	e8 05 fd ff ff       	callq  ffffffff802047a0 <set_pml4_entry>
ffffffff80204a9b:	48 ba 00 f0 ff ff ff 	mov    $0xffffffffff000,%rdx
ffffffff80204aa2:	ff 0f 00 
ffffffff80204aa5:	48 23 55 00          	and    0x0(%rbp),%rdx
ffffffff80204aa9:	48 8b 05 88 46 00 00 	mov    18056(%rip),%rax        # ffffffff80209138 <__FUNCTION__.1376+0x3ad8>
ffffffff80204ab0:	48 03 10             	add    (%rax),%rdx
ffffffff80204ab3:	48 89 54 24 38       	mov    %rdx,0x38(%rsp)
ffffffff80204ab8:	48 83 3a 00          	cmpq   $0x0,(%rdx)
ffffffff80204abc:	0f 84 c3 01 00 00    	je     ffffffff80204c85 <copy_page_table+0x28e>
ffffffff80204ac2:	49 89 d5             	mov    %rdx,%r13
ffffffff80204ac5:	41 bc 00 00 00 00    	mov    $0x0,%r12d
ffffffff80204acb:	66 c7 44 24 1c 00 00 	movw   $0x0,0x1c(%rsp)
ffffffff80204ad2:	be 01 00 00 00       	mov    $0x1,%esi
ffffffff80204ad7:	bf 00 00 00 00       	mov    $0x0,%edi
ffffffff80204adc:	e8 1e f4 ff ff       	callq  ffffffff80203eff <sub_malloc>
ffffffff80204ae1:	48 89 c3             	mov    %rax,%rbx
ffffffff80204ae4:	ba 00 10 00 00       	mov    $0x1000,%edx
ffffffff80204ae9:	be 00 00 00 00       	mov    $0x0,%esi
ffffffff80204aee:	48 89 c7             	mov    %rax,%rdi
ffffffff80204af1:	e8 2d dd ff ff       	callq  ffffffff80202823 <memset>
ffffffff80204af6:	48 89 dd             	mov    %rbx,%rbp
ffffffff80204af9:	b8 00 00 00 80       	mov    $0x80000000,%eax
ffffffff80204afe:	48 8d 34 03          	lea    (%rbx,%rax,1),%rsi
ffffffff80204b02:	48 85 db             	test   %rbx,%rbx
ffffffff80204b05:	75 1d                	jne    ffffffff80204b24 <copy_page_table+0x12d>
ffffffff80204b07:	48 8d 15 3a 10 00 00 	lea    4154(%rip),%rdx        # ffffffff80205b48 <__FUNCTION__.1376+0x4e8>
ffffffff80204b0e:	be e7 00 00 00       	mov    $0xe7,%esi
ffffffff80204b13:	48 8d 3d 36 0b 00 00 	lea    2870(%rip),%rdi        # ffffffff80205650 <__FUNCTION__.1473>
ffffffff80204b1a:	e8 15 e2 ff ff       	callq  ffffffff80202d34 <PANIC>
ffffffff80204b1f:	e9 83 01 00 00       	jmpq   ffffffff80204ca7 <copy_page_table+0x2b0>
ffffffff80204b24:	48 8b 44 24 30       	mov    0x30(%rsp),%rax
ffffffff80204b29:	4a 8d 3c 20          	lea    (%rax,%r12,1),%rdi
ffffffff80204b2d:	8b 54 24 18          	mov    0x18(%rsp),%edx
ffffffff80204b31:	e8 b0 fc ff ff       	callq  ffffffff802047e6 <set_pdpe_entry>
ffffffff80204b36:	48 b8 00 f0 ff ff ff 	mov    $0xffffffffff000,%rax
ffffffff80204b3d:	ff 0f 00 
ffffffff80204b40:	49 23 45 00          	and    0x0(%r13),%rax
ffffffff80204b44:	48 8b 15 ed 45 00 00 	mov    17901(%rip),%rdx        # ffffffff80209138 <__FUNCTION__.1376+0x3ad8>
ffffffff80204b4b:	48 03 02             	add    (%rdx),%rax
ffffffff80204b4e:	48 8d 88 00 10 00 00 	lea    0x1000(%rax),%rcx
ffffffff80204b55:	48 89 4c 24 08       	mov    %rcx,0x8(%rsp)
ffffffff80204b5a:	49 89 c6             	mov    %rax,%r14
ffffffff80204b5d:	48 29 c5             	sub    %rax,%rbp
ffffffff80204b60:	48 89 6c 24 10       	mov    %rbp,0x10(%rsp)
ffffffff80204b65:	49 83 3e 00          	cmpq   $0x0,(%r14)
ffffffff80204b69:	0f 84 e4 00 00 00    	je     ffffffff80204c53 <copy_page_table+0x25c>
ffffffff80204b6f:	be 01 00 00 00       	mov    $0x1,%esi
ffffffff80204b74:	bf 00 00 00 00       	mov    $0x0,%edi
ffffffff80204b79:	e8 81 f3 ff ff       	callq  ffffffff80203eff <sub_malloc>
ffffffff80204b7e:	48 89 c3             	mov    %rax,%rbx
ffffffff80204b81:	ba 08 00 00 00       	mov    $0x8,%edx
ffffffff80204b86:	be 00 00 00 00       	mov    $0x0,%esi
ffffffff80204b8b:	48 89 c7             	mov    %rax,%rdi
ffffffff80204b8e:	e8 90 dc ff ff       	callq  ffffffff80202823 <memset>
ffffffff80204b93:	49 89 dc             	mov    %rbx,%r12
ffffffff80204b96:	b8 00 00 00 80       	mov    $0x80000000,%eax
ffffffff80204b9b:	48 8d 34 03          	lea    (%rbx,%rax,1),%rsi
ffffffff80204b9f:	48 85 db             	test   %rbx,%rbx
ffffffff80204ba2:	75 1d                	jne    ffffffff80204bc1 <copy_page_table+0x1ca>
ffffffff80204ba4:	48 8d 15 d5 0f 00 00 	lea    4053(%rip),%rdx        # ffffffff80205b80 <__FUNCTION__.1376+0x520>
ffffffff80204bab:	be f6 00 00 00       	mov    $0xf6,%esi
ffffffff80204bb0:	48 8d 3d 99 0a 00 00 	lea    2713(%rip),%rdi        # ffffffff80205650 <__FUNCTION__.1473>
ffffffff80204bb7:	e8 78 e1 ff ff       	callq  ffffffff80202d34 <PANIC>
ffffffff80204bbc:	e9 e6 00 00 00       	jmpq   ffffffff80204ca7 <copy_page_table+0x2b0>
ffffffff80204bc1:	48 8b 44 24 10       	mov    0x10(%rsp),%rax
ffffffff80204bc6:	4a 8d 3c 30          	lea    (%rax,%r14,1),%rdi
ffffffff80204bca:	8b 54 24 18          	mov    0x18(%rsp),%edx
ffffffff80204bce:	e8 59 fc ff ff       	callq  ffffffff8020482c <set_pde_entry>
ffffffff80204bd3:	48 be 00 f0 ff ff ff 	mov    $0xffffffffff000,%rsi
ffffffff80204bda:	ff 0f 00 
ffffffff80204bdd:	49 23 36             	and    (%r14),%rsi
ffffffff80204be0:	48 8b 2d 51 45 00 00 	mov    17745(%rip),%rbp        # ffffffff80209138 <__FUNCTION__.1376+0x3ad8>
ffffffff80204be7:	48 03 75 00          	add    0x0(%rbp),%rsi
ffffffff80204beb:	ba 00 10 00 00       	mov    $0x1000,%edx
ffffffff80204bf0:	48 89 df             	mov    %rbx,%rdi
ffffffff80204bf3:	e8 bb dc ff ff       	callq  ffffffff802028b3 <memcpy>
ffffffff80204bf8:	48 b8 00 f0 ff ff ff 	mov    $0xffffffffff000,%rax
ffffffff80204bff:	ff 0f 00 
ffffffff80204c02:	49 23 06             	and    (%r14),%rax
ffffffff80204c05:	48 03 45 00          	add    0x0(%rbp),%rax
ffffffff80204c09:	4c 8d a8 00 10 00 00 	lea    0x1000(%rax),%r13
ffffffff80204c10:	48 89 c3             	mov    %rax,%rbx
ffffffff80204c13:	49 29 c4             	sub    %rax,%r12
ffffffff80204c16:	49 8d 2c 1c          	lea    (%r12,%rbx,1),%rbp
ffffffff80204c1a:	be 02 00 00 00       	mov    $0x2,%esi
ffffffff80204c1f:	48 89 ef             	mov    %rbp,%rdi
ffffffff80204c22:	e8 b5 f9 ff ff       	callq  ffffffff802045dc <pt_entry_del_attrib>
ffffffff80204c27:	be 02 00 00 00       	mov    $0x2,%esi
ffffffff80204c2c:	48 89 df             	mov    %rbx,%rdi
ffffffff80204c2f:	e8 a8 f9 ff ff       	callq  ffffffff802045dc <pt_entry_del_attrib>
ffffffff80204c34:	4c 89 fe             	mov    %r15,%rsi
ffffffff80204c37:	48 89 df             	mov    %rbx,%rdi
ffffffff80204c3a:	e8 99 f9 ff ff       	callq  ffffffff802045d8 <pt_entry_add_attrib>
ffffffff80204c3f:	4c 89 fe             	mov    %r15,%rsi
ffffffff80204c42:	48 89 ef             	mov    %rbp,%rdi
ffffffff80204c45:	e8 8e f9 ff ff       	callq  ffffffff802045d8 <pt_entry_add_attrib>
ffffffff80204c4a:	48 83 c3 08          	add    $0x8,%rbx
ffffffff80204c4e:	4c 39 eb             	cmp    %r13,%rbx
ffffffff80204c51:	75 c3                	jne    ffffffff80204c16 <copy_page_table+0x21f>
ffffffff80204c53:	49 83 c6 08          	add    $0x8,%r14
ffffffff80204c57:	4c 3b 74 24 08       	cmp    0x8(%rsp),%r14
ffffffff80204c5c:	0f 85 03 ff ff ff    	jne    ffffffff80204b65 <copy_page_table+0x16e>
ffffffff80204c62:	66 ff 44 24 1c       	incw   0x1c(%rsp)
ffffffff80204c67:	44 0f b7 64 24 1c    	movzwl 0x1c(%rsp),%r12d
ffffffff80204c6d:	49 c1 e4 03          	shl    $0x3,%r12
ffffffff80204c71:	48 8b 44 24 38       	mov    0x38(%rsp),%rax
ffffffff80204c76:	4e 8d 2c 20          	lea    (%rax,%r12,1),%r13
ffffffff80204c7a:	49 83 7d 00 00       	cmpq   $0x0,0x0(%r13)
ffffffff80204c7f:	0f 85 4d fe ff ff    	jne    ffffffff80204ad2 <copy_page_table+0xdb>
ffffffff80204c85:	66 ff 44 24 1e       	incw   0x1e(%rsp)
ffffffff80204c8a:	0f b7 5c 24 1e       	movzwl 0x1e(%rsp),%ebx
ffffffff80204c8f:	48 c1 e3 03          	shl    $0x3,%rbx
ffffffff80204c93:	48 8b 44 24 20       	mov    0x20(%rsp),%rax
ffffffff80204c98:	48 8d 2c 18          	lea    (%rax,%rbx,1),%rbp
ffffffff80204c9c:	48 83 7d 00 00       	cmpq   $0x0,0x0(%rbp)
ffffffff80204ca1:	0f 85 8f fd ff ff    	jne    ffffffff80204a36 <copy_page_table+0x3f>
ffffffff80204ca7:	48 83 c4 48          	add    $0x48,%rsp
ffffffff80204cab:	5b                   	pop    %rbx
ffffffff80204cac:	5d                   	pop    %rbp
ffffffff80204cad:	41 5c                	pop    %r12
ffffffff80204caf:	41 5d                	pop    %r13
ffffffff80204cb1:	41 5e                	pop    %r14
ffffffff80204cb3:	41 5f                	pop    %r15
ffffffff80204cb5:	c3                   	retq   

ffffffff80204cb6 <clear_page_tables>:
ffffffff80204cb6:	41 57                	push   %r15
ffffffff80204cb8:	41 56                	push   %r14
ffffffff80204cba:	41 55                	push   %r13
ffffffff80204cbc:	41 54                	push   %r12
ffffffff80204cbe:	55                   	push   %rbp
ffffffff80204cbf:	53                   	push   %rbx
ffffffff80204cc0:	48 83 ec 18          	sub    $0x18,%rsp
ffffffff80204cc4:	48 89 fa             	mov    %rdi,%rdx
ffffffff80204cc7:	48 89 7c 24 08       	mov    %rdi,0x8(%rsp)
ffffffff80204ccc:	48 8b 07             	mov    (%rdi),%rax
ffffffff80204ccf:	48 85 c0             	test   %rax,%rax
ffffffff80204cd2:	0f 84 b9 00 00 00    	je     ffffffff80204d91 <clear_page_tables+0xdb>
ffffffff80204cd8:	66 c7 44 24 06 00 00 	movw   $0x0,0x6(%rsp)
ffffffff80204cdf:	49 bc 00 f0 ff ff ff 	mov    $0xffffffffff000,%r12
ffffffff80204ce6:	ff 0f 00 
ffffffff80204ce9:	4c 21 e0             	and    %r12,%rax
ffffffff80204cec:	48 8b 0d 45 44 00 00 	mov    17477(%rip),%rcx        # ffffffff80209138 <__FUNCTION__.1376+0x3ad8>
ffffffff80204cf3:	48 03 01             	add    (%rcx),%rax
ffffffff80204cf6:	49 89 c6             	mov    %rax,%r14
ffffffff80204cf9:	48 c7 02 00 00 00 00 	movq   $0x0,(%rdx)
ffffffff80204d00:	48 8b 00             	mov    (%rax),%rax
ffffffff80204d03:	48 85 c0             	test   %rax,%rax
ffffffff80204d06:	74 6a                	je     ffffffff80204d72 <clear_page_tables+0xbc>
ffffffff80204d08:	4c 89 f2             	mov    %r14,%rdx
ffffffff80204d0b:	41 bd 00 00 00 00    	mov    $0x0,%r13d
ffffffff80204d11:	49 89 cf             	mov    %rcx,%r15
ffffffff80204d14:	4c 21 e0             	and    %r12,%rax
ffffffff80204d17:	49 03 07             	add    (%r15),%rax
ffffffff80204d1a:	48 89 c3             	mov    %rax,%rbx
ffffffff80204d1d:	48 c7 02 00 00 00 00 	movq   $0x0,(%rdx)
ffffffff80204d24:	48 8d a8 00 10 00 00 	lea    0x1000(%rax),%rbp
ffffffff80204d2b:	48 8b 3b             	mov    (%rbx),%rdi
ffffffff80204d2e:	48 85 ff             	test   %rdi,%rdi
ffffffff80204d31:	74 23                	je     ffffffff80204d56 <clear_page_tables+0xa0>
ffffffff80204d33:	4c 21 e7             	and    %r12,%rdi
ffffffff80204d36:	48 8b 05 fb 43 00 00 	mov    17403(%rip),%rax        # ffffffff80209138 <__FUNCTION__.1376+0x3ad8>
ffffffff80204d3d:	48 03 38             	add    (%rax),%rdi
ffffffff80204d40:	ba 00 10 00 00       	mov    $0x1000,%edx
ffffffff80204d45:	be 00 00 00 00       	mov    $0x0,%esi
ffffffff80204d4a:	e8 d4 da ff ff       	callq  ffffffff80202823 <memset>
ffffffff80204d4f:	48 c7 03 00 00 00 00 	movq   $0x0,(%rbx)
ffffffff80204d56:	48 83 c3 08          	add    $0x8,%rbx
ffffffff80204d5a:	48 39 eb             	cmp    %rbp,%rbx
ffffffff80204d5d:	75 cc                	jne    ffffffff80204d2b <clear_page_tables+0x75>
ffffffff80204d5f:	41 ff c5             	inc    %r13d
ffffffff80204d62:	41 0f b7 c5          	movzwl %r13w,%eax
ffffffff80204d66:	49 8d 14 c6          	lea    (%r14,%rax,8),%rdx
ffffffff80204d6a:	48 8b 02             	mov    (%rdx),%rax
ffffffff80204d6d:	48 85 c0             	test   %rax,%rax
ffffffff80204d70:	75 a2                	jne    ffffffff80204d14 <clear_page_tables+0x5e>
ffffffff80204d72:	66 ff 44 24 06       	incw   0x6(%rsp)
ffffffff80204d77:	0f b7 44 24 06       	movzwl 0x6(%rsp),%eax
ffffffff80204d7c:	48 8b 4c 24 08       	mov    0x8(%rsp),%rcx
ffffffff80204d81:	48 8d 14 c1          	lea    (%rcx,%rax,8),%rdx
ffffffff80204d85:	48 8b 02             	mov    (%rdx),%rax
ffffffff80204d88:	48 85 c0             	test   %rax,%rax
ffffffff80204d8b:	0f 85 58 ff ff ff    	jne    ffffffff80204ce9 <clear_page_tables+0x33>
ffffffff80204d91:	48 83 c4 18          	add    $0x18,%rsp
ffffffff80204d95:	5b                   	pop    %rbx
ffffffff80204d96:	5d                   	pop    %rbp
ffffffff80204d97:	41 5c                	pop    %r12
ffffffff80204d99:	41 5d                	pop    %r13
ffffffff80204d9b:	41 5e                	pop    %r14
ffffffff80204d9d:	41 5f                	pop    %r15
ffffffff80204d9f:	c3                   	retq   

ffffffff80204da0 <vmmgr_map_page_after_paging>:
ffffffff80204da0:	41 56                	push   %r14
ffffffff80204da2:	41 55                	push   %r13
ffffffff80204da4:	41 54                	push   %r12
ffffffff80204da6:	55                   	push   %rbp
ffffffff80204da7:	53                   	push   %rbx
ffffffff80204da8:	49 89 fd             	mov    %rdi,%r13
ffffffff80204dab:	48 89 f3             	mov    %rsi,%rbx
ffffffff80204dae:	89 d5                	mov    %edx,%ebp
ffffffff80204db0:	48 89 f7             	mov    %rsi,%rdi
ffffffff80204db3:	e8 ba fa ff ff       	callq  ffffffff80204872 <get_pml4e_offset_recurse>
ffffffff80204db8:	49 89 c4             	mov    %rax,%r12
ffffffff80204dbb:	f6 00 01             	testb  $0x1,(%rax)
ffffffff80204dbe:	75 58                	jne    ffffffff80204e18 <vmmgr_map_page_after_paging+0x78>
ffffffff80204dc0:	be 01 00 00 00       	mov    $0x1,%esi
ffffffff80204dc5:	bf 00 00 00 00       	mov    $0x0,%edi
ffffffff80204dca:	e8 30 f1 ff ff       	callq  ffffffff80203eff <sub_malloc>
ffffffff80204dcf:	49 89 c6             	mov    %rax,%r14
ffffffff80204dd2:	ba 00 10 00 00       	mov    $0x1000,%edx
ffffffff80204dd7:	be 00 00 00 00       	mov    $0x0,%esi
ffffffff80204ddc:	48 89 c7             	mov    %rax,%rdi
ffffffff80204ddf:	e8 3f da ff ff       	callq  ffffffff80202823 <memset>
ffffffff80204de4:	be 00 00 00 80       	mov    $0x80000000,%esi
ffffffff80204de9:	4c 01 f6             	add    %r14,%rsi
ffffffff80204dec:	4d 85 f6             	test   %r14,%r14
ffffffff80204def:	75 1d                	jne    ffffffff80204e0e <vmmgr_map_page_after_paging+0x6e>
ffffffff80204df1:	48 8d 15 18 0d 00 00 	lea    3352(%rip),%rdx        # ffffffff80205b10 <__FUNCTION__.1376+0x4b0>
ffffffff80204df8:	be 37 01 00 00       	mov    $0x137,%esi
ffffffff80204dfd:	48 8d 3d 2c 08 00 00 	lea    2092(%rip),%rdi        # ffffffff80205630 <__FUNCTION__.1520>
ffffffff80204e04:	e8 2b df ff ff       	callq  ffffffff80202d34 <PANIC>
ffffffff80204e09:	e9 e1 00 00 00       	jmpq   ffffffff80204eef <vmmgr_map_page_after_paging+0x14f>
ffffffff80204e0e:	89 ea                	mov    %ebp,%edx
ffffffff80204e10:	4c 89 e7             	mov    %r12,%rdi
ffffffff80204e13:	e8 88 f9 ff ff       	callq  ffffffff802047a0 <set_pml4_entry>
ffffffff80204e18:	48 89 df             	mov    %rbx,%rdi
ffffffff80204e1b:	e8 69 fa ff ff       	callq  ffffffff80204889 <get_pdpe_offset_recurse>
ffffffff80204e20:	49 89 c4             	mov    %rax,%r12
ffffffff80204e23:	f6 00 01             	testb  $0x1,(%rax)
ffffffff80204e26:	75 55                	jne    ffffffff80204e7d <vmmgr_map_page_after_paging+0xdd>
ffffffff80204e28:	be 01 00 00 00       	mov    $0x1,%esi
ffffffff80204e2d:	bf 00 00 00 00       	mov    $0x0,%edi
ffffffff80204e32:	e8 c8 f0 ff ff       	callq  ffffffff80203eff <sub_malloc>
ffffffff80204e37:	49 89 c6             	mov    %rax,%r14
ffffffff80204e3a:	ba 00 10 00 00       	mov    $0x1000,%edx
ffffffff80204e3f:	be 00 00 00 00       	mov    $0x0,%esi
ffffffff80204e44:	48 89 c7             	mov    %rax,%rdi
ffffffff80204e47:	e8 d7 d9 ff ff       	callq  ffffffff80202823 <memset>
ffffffff80204e4c:	be 00 00 00 80       	mov    $0x80000000,%esi
ffffffff80204e51:	4c 01 f6             	add    %r14,%rsi
ffffffff80204e54:	4d 85 f6             	test   %r14,%r14
ffffffff80204e57:	75 1a                	jne    ffffffff80204e73 <vmmgr_map_page_after_paging+0xd3>
ffffffff80204e59:	48 8d 15 e8 0c 00 00 	lea    3304(%rip),%rdx        # ffffffff80205b48 <__FUNCTION__.1376+0x4e8>
ffffffff80204e60:	be 44 01 00 00       	mov    $0x144,%esi
ffffffff80204e65:	48 8d 3d c4 07 00 00 	lea    1988(%rip),%rdi        # ffffffff80205630 <__FUNCTION__.1520>
ffffffff80204e6c:	e8 c3 de ff ff       	callq  ffffffff80202d34 <PANIC>
ffffffff80204e71:	eb 7c                	jmp    ffffffff80204eef <vmmgr_map_page_after_paging+0x14f>
ffffffff80204e73:	89 ea                	mov    %ebp,%edx
ffffffff80204e75:	4c 89 e7             	mov    %r12,%rdi
ffffffff80204e78:	e8 69 f9 ff ff       	callq  ffffffff802047e6 <set_pdpe_entry>
ffffffff80204e7d:	48 89 df             	mov    %rbx,%rdi
ffffffff80204e80:	e8 2f fa ff ff       	callq  ffffffff802048b4 <get_pde_offset_recurse>
ffffffff80204e85:	49 89 c4             	mov    %rax,%r12
ffffffff80204e88:	f6 00 01             	testb  $0x1,(%rax)
ffffffff80204e8b:	75 55                	jne    ffffffff80204ee2 <vmmgr_map_page_after_paging+0x142>
ffffffff80204e8d:	be 01 00 00 00       	mov    $0x1,%esi
ffffffff80204e92:	bf 00 00 00 00       	mov    $0x0,%edi
ffffffff80204e97:	e8 63 f0 ff ff       	callq  ffffffff80203eff <sub_malloc>
ffffffff80204e9c:	49 89 c6             	mov    %rax,%r14
ffffffff80204e9f:	ba 08 00 00 00       	mov    $0x8,%edx
ffffffff80204ea4:	be 00 00 00 00       	mov    $0x0,%esi
ffffffff80204ea9:	48 89 c7             	mov    %rax,%rdi
ffffffff80204eac:	e8 72 d9 ff ff       	callq  ffffffff80202823 <memset>
ffffffff80204eb1:	be 00 00 00 80       	mov    $0x80000000,%esi
ffffffff80204eb6:	4c 01 f6             	add    %r14,%rsi
ffffffff80204eb9:	4d 85 f6             	test   %r14,%r14
ffffffff80204ebc:	75 1a                	jne    ffffffff80204ed8 <vmmgr_map_page_after_paging+0x138>
ffffffff80204ebe:	48 8d 15 bb 0c 00 00 	lea    3259(%rip),%rdx        # ffffffff80205b80 <__FUNCTION__.1376+0x520>
ffffffff80204ec5:	be 51 01 00 00       	mov    $0x151,%esi
ffffffff80204eca:	48 8d 3d 5f 07 00 00 	lea    1887(%rip),%rdi        # ffffffff80205630 <__FUNCTION__.1520>
ffffffff80204ed1:	e8 5e de ff ff       	callq  ffffffff80202d34 <PANIC>
ffffffff80204ed6:	eb 17                	jmp    ffffffff80204eef <vmmgr_map_page_after_paging+0x14f>
ffffffff80204ed8:	89 ea                	mov    %ebp,%edx
ffffffff80204eda:	4c 89 e7             	mov    %r12,%rdi
ffffffff80204edd:	e8 4a f9 ff ff       	callq  ffffffff8020482c <set_pde_entry>
ffffffff80204ee2:	89 ea                	mov    %ebp,%edx
ffffffff80204ee4:	48 89 de             	mov    %rbx,%rsi
ffffffff80204ee7:	4c 89 ef             	mov    %r13,%rdi
ffffffff80204eea:	e8 08 fa ff ff       	callq  ffffffff802048f7 <set_phys_virt_recurse>
ffffffff80204eef:	5b                   	pop    %rbx
ffffffff80204ef0:	5d                   	pop    %rbp
ffffffff80204ef1:	41 5c                	pop    %r12
ffffffff80204ef3:	41 5d                	pop    %r13
ffffffff80204ef5:	41 5e                	pop    %r14
ffffffff80204ef7:	c3                   	retq   

ffffffff80204ef8 <vmmgr_map_page>:
ffffffff80204ef8:	41 56                	push   %r14
ffffffff80204efa:	41 55                	push   %r13
ffffffff80204efc:	41 54                	push   %r12
ffffffff80204efe:	55                   	push   %rbp
ffffffff80204eff:	53                   	push   %rbx
ffffffff80204f00:	49 89 fc             	mov    %rdi,%r12
ffffffff80204f03:	48 89 f3             	mov    %rsi,%rbx
ffffffff80204f06:	48 8b 05 23 42 00 00 	mov    16931(%rip),%rax        # ffffffff80209130 <__FUNCTION__.1376+0x3ad0>
ffffffff80204f0d:	48 8b 38             	mov    (%rax),%rdi
ffffffff80204f10:	e8 5c f7 ff ff       	callq  ffffffff80204671 <vmmgr_pml4_directory_lookup_entry>
ffffffff80204f15:	48 89 c5             	mov    %rax,%rbp
ffffffff80204f18:	f6 00 01             	testb  $0x1,(%rax)
ffffffff80204f1b:	75 51                	jne    ffffffff80204f6e <vmmgr_map_page+0x76>
ffffffff80204f1d:	b8 00 00 00 00       	mov    $0x0,%eax
ffffffff80204f22:	e8 b7 e9 ff ff       	callq  ffffffff802038de <mmgr_alloc_block>
ffffffff80204f27:	49 89 c5             	mov    %rax,%r13
ffffffff80204f2a:	ba 00 10 00 00       	mov    $0x1000,%edx
ffffffff80204f2f:	be 00 00 00 00       	mov    $0x0,%esi
ffffffff80204f34:	48 89 c7             	mov    %rax,%rdi
ffffffff80204f37:	e8 e7 d8 ff ff       	callq  ffffffff80202823 <memset>
ffffffff80204f3c:	4d 85 ed             	test   %r13,%r13
ffffffff80204f3f:	75 1d                	jne    ffffffff80204f5e <vmmgr_map_page+0x66>
ffffffff80204f41:	48 8d 15 c8 0b 00 00 	lea    3016(%rip),%rdx        # ffffffff80205b10 <__FUNCTION__.1376+0x4b0>
ffffffff80204f48:	be a5 01 00 00       	mov    $0x1a5,%esi
ffffffff80204f4d:	48 8d 3d c7 06 00 00 	lea    1735(%rip),%rdi        # ffffffff8020561b <__FUNCTION__.1538>
ffffffff80204f54:	e8 db dd ff ff       	callq  ffffffff80202d34 <PANIC>
ffffffff80204f59:	e9 37 01 00 00       	jmpq   ffffffff80205095 <vmmgr_map_page+0x19d>
ffffffff80204f5e:	ba 00 00 00 00       	mov    $0x0,%edx
ffffffff80204f63:	4c 89 ee             	mov    %r13,%rsi
ffffffff80204f66:	48 89 ef             	mov    %rbp,%rdi
ffffffff80204f69:	e8 32 f8 ff ff       	callq  ffffffff802047a0 <set_pml4_entry>
ffffffff80204f6e:	48 bf 00 f0 ff ff ff 	mov    $0xffffffffff000,%rdi
ffffffff80204f75:	ff 0f 00 
ffffffff80204f78:	48 23 7d 00          	and    0x0(%rbp),%rdi
ffffffff80204f7c:	48 89 de             	mov    %rbx,%rsi
ffffffff80204f7f:	e8 d2 f6 ff ff       	callq  ffffffff80204656 <vmmgr_page_pointer_directory_lookup_entry>
ffffffff80204f84:	48 89 c5             	mov    %rax,%rbp
ffffffff80204f87:	f6 00 01             	testb  $0x1,(%rax)
ffffffff80204f8a:	75 51                	jne    ffffffff80204fdd <vmmgr_map_page+0xe5>
ffffffff80204f8c:	b8 00 00 00 00       	mov    $0x0,%eax
ffffffff80204f91:	e8 48 e9 ff ff       	callq  ffffffff802038de <mmgr_alloc_block>
ffffffff80204f96:	49 89 c5             	mov    %rax,%r13
ffffffff80204f99:	ba 00 10 00 00       	mov    $0x1000,%edx
ffffffff80204f9e:	be 00 00 00 00       	mov    $0x0,%esi
ffffffff80204fa3:	48 89 c7             	mov    %rax,%rdi
ffffffff80204fa6:	e8 78 d8 ff ff       	callq  ffffffff80202823 <memset>
ffffffff80204fab:	4d 85 ed             	test   %r13,%r13
ffffffff80204fae:	75 1d                	jne    ffffffff80204fcd <vmmgr_map_page+0xd5>
ffffffff80204fb0:	48 8d 15 91 0b 00 00 	lea    2961(%rip),%rdx        # ffffffff80205b48 <__FUNCTION__.1376+0x4e8>
ffffffff80204fb7:	be b2 01 00 00       	mov    $0x1b2,%esi
ffffffff80204fbc:	48 8d 3d 58 06 00 00 	lea    1624(%rip),%rdi        # ffffffff8020561b <__FUNCTION__.1538>
ffffffff80204fc3:	e8 6c dd ff ff       	callq  ffffffff80202d34 <PANIC>
ffffffff80204fc8:	e9 c8 00 00 00       	jmpq   ffffffff80205095 <vmmgr_map_page+0x19d>
ffffffff80204fcd:	ba 00 00 00 00       	mov    $0x0,%edx
ffffffff80204fd2:	4c 89 ee             	mov    %r13,%rsi
ffffffff80204fd5:	48 89 ef             	mov    %rbp,%rdi
ffffffff80204fd8:	e8 09 f8 ff ff       	callq  ffffffff802047e6 <set_pdpe_entry>
ffffffff80204fdd:	49 bd 00 f0 ff ff ff 	mov    $0xffffffffff000,%r13
ffffffff80204fe4:	ff 0f 00 
ffffffff80204fe7:	4c 23 6d 00          	and    0x0(%rbp),%r13
ffffffff80204feb:	48 89 de             	mov    %rbx,%rsi
ffffffff80204fee:	4c 89 ef             	mov    %r13,%rdi
ffffffff80204ff1:	e8 45 f6 ff ff       	callq  ffffffff8020463b <vmmgr_page_directory_lookup_entry>
ffffffff80204ff6:	48 89 c5             	mov    %rax,%rbp
ffffffff80204ff9:	f6 00 01             	testb  $0x1,(%rax)
ffffffff80204ffc:	75 59                	jne    ffffffff80205057 <vmmgr_map_page+0x15f>
ffffffff80204ffe:	b8 00 00 00 00       	mov    $0x0,%eax
ffffffff80205003:	e8 d6 e8 ff ff       	callq  ffffffff802038de <mmgr_alloc_block>
ffffffff80205008:	49 89 c6             	mov    %rax,%r14
ffffffff8020500b:	ba 08 00 00 00       	mov    $0x8,%edx
ffffffff80205010:	be 00 00 00 00       	mov    $0x0,%esi
ffffffff80205015:	48 89 c7             	mov    %rax,%rdi
ffffffff80205018:	e8 06 d8 ff ff       	callq  ffffffff80202823 <memset>
ffffffff8020501d:	4d 85 f6             	test   %r14,%r14
ffffffff80205020:	75 1a                	jne    ffffffff8020503c <vmmgr_map_page+0x144>
ffffffff80205022:	48 8d 15 57 0b 00 00 	lea    2903(%rip),%rdx        # ffffffff80205b80 <__FUNCTION__.1376+0x520>
ffffffff80205029:	be bf 01 00 00       	mov    $0x1bf,%esi
ffffffff8020502e:	48 8d 3d e6 05 00 00 	lea    1510(%rip),%rdi        # ffffffff8020561b <__FUNCTION__.1538>
ffffffff80205035:	e8 fa dc ff ff       	callq  ffffffff80202d34 <PANIC>
ffffffff8020503a:	eb 59                	jmp    ffffffff80205095 <vmmgr_map_page+0x19d>
ffffffff8020503c:	48 89 de             	mov    %rbx,%rsi
ffffffff8020503f:	4c 89 ef             	mov    %r13,%rdi
ffffffff80205042:	e8 f4 f5 ff ff       	callq  ffffffff8020463b <vmmgr_page_directory_lookup_entry>
ffffffff80205047:	ba 00 00 00 00       	mov    $0x0,%edx
ffffffff8020504c:	4c 89 f6             	mov    %r14,%rsi
ffffffff8020504f:	48 89 c7             	mov    %rax,%rdi
ffffffff80205052:	e8 d5 f7 ff ff       	callq  ffffffff8020482c <set_pde_entry>
ffffffff80205057:	48 bf 00 f0 ff ff ff 	mov    $0xffffffffff000,%rdi
ffffffff8020505e:	ff 0f 00 
ffffffff80205061:	48 23 7d 00          	and    0x0(%rbp),%rdi
ffffffff80205065:	48 89 de             	mov    %rbx,%rsi
ffffffff80205068:	e8 b3 f5 ff ff       	callq  ffffffff80204620 <vmmgr_ptable_lookup_entry>
ffffffff8020506d:	48 89 c3             	mov    %rax,%rbx
ffffffff80205070:	4c 89 e6             	mov    %r12,%rsi
ffffffff80205073:	48 89 c7             	mov    %rax,%rdi
ffffffff80205076:	e8 68 f5 ff ff       	callq  ffffffff802045e3 <pt_entry_set_frame>
ffffffff8020507b:	be 01 00 00 00       	mov    $0x1,%esi
ffffffff80205080:	48 89 df             	mov    %rbx,%rdi
ffffffff80205083:	e8 50 f5 ff ff       	callq  ffffffff802045d8 <pt_entry_add_attrib>
ffffffff80205088:	be 02 00 00 00       	mov    $0x2,%esi
ffffffff8020508d:	48 89 df             	mov    %rbx,%rdi
ffffffff80205090:	e8 43 f5 ff ff       	callq  ffffffff802045d8 <pt_entry_add_attrib>
ffffffff80205095:	5b                   	pop    %rbx
ffffffff80205096:	5d                   	pop    %rbp
ffffffff80205097:	41 5c                	pop    %r12
ffffffff80205099:	41 5d                	pop    %r13
ffffffff8020509b:	41 5e                	pop    %r14
ffffffff8020509d:	c3                   	retq   

ffffffff8020509e <vmmgr_init>:
ffffffff8020509e:	41 55                	push   %r13
ffffffff802050a0:	41 54                	push   %r12
ffffffff802050a2:	55                   	push   %rbp
ffffffff802050a3:	53                   	push   %rbx
ffffffff802050a4:	48 83 ec 08          	sub    $0x8,%rsp
ffffffff802050a8:	b8 00 00 00 00       	mov    $0x0,%eax
ffffffff802050ad:	e8 2c e8 ff ff       	callq  ffffffff802038de <mmgr_alloc_block>
ffffffff802050b2:	49 89 c4             	mov    %rax,%r12
ffffffff802050b5:	48 85 c0             	test   %rax,%rax
ffffffff802050b8:	75 1d                	jne    ffffffff802050d7 <vmmgr_init+0x39>
ffffffff802050ba:	48 8d 15 f7 0a 00 00 	lea    2807(%rip),%rdx        # ffffffff80205bb8 <__FUNCTION__.1376+0x558>
ffffffff802050c1:	be d8 01 00 00       	mov    $0x1d8,%esi
ffffffff802050c6:	48 8d 3d 43 05 00 00 	lea    1347(%rip),%rdi        # ffffffff80205610 <__FUNCTION__.1548>
ffffffff802050cd:	e8 62 dc ff ff       	callq  ffffffff80202d34 <PANIC>
ffffffff802050d2:	e9 00 01 00 00       	jmpq   ffffffff802051d7 <vmmgr_init+0x139>
ffffffff802050d7:	ba 00 10 00 00       	mov    $0x1000,%edx
ffffffff802050dc:	be 00 00 00 00       	mov    $0x0,%esi
ffffffff802050e1:	48 89 c7             	mov    %rax,%rdi
ffffffff802050e4:	e8 3a d7 ff ff       	callq  ffffffff80202823 <memset>
ffffffff802050e9:	49 8d bc 24 f0 0f 00 	lea    0xff0(%r12),%rdi
ffffffff802050f0:	00 
ffffffff802050f1:	ba 00 00 00 00       	mov    $0x0,%edx
ffffffff802050f6:	4c 89 e6             	mov    %r12,%rsi
ffffffff802050f9:	e8 16 f6 ff ff       	callq  ffffffff80204714 <set_pml4_entry_recurs>
ffffffff802050fe:	48 8b 05 2b 40 00 00 	mov    16427(%rip),%rax        # ffffffff80209130 <__FUNCTION__.1376+0x3ad0>
ffffffff80205105:	4c 89 20             	mov    %r12,(%rax)
ffffffff80205108:	4c 8b 2d d1 3f 00 00 	mov    16337(%rip),%r13        # ffffffff802090e0 <__FUNCTION__.1376+0x3a80>
ffffffff8020510f:	49 8d ad 00 00 00 80 	lea    0xffffffff80000000(%r13),%rbp
ffffffff80205116:	bb 00 00 20 00       	mov    $0x200000,%ebx
ffffffff8020511b:	48 89 ee             	mov    %rbp,%rsi
ffffffff8020511e:	48 89 df             	mov    %rbx,%rdi
ffffffff80205121:	e8 d2 fd ff ff       	callq  ffffffff80204ef8 <vmmgr_map_page>
ffffffff80205126:	48 81 c3 00 10 00 00 	add    $0x1000,%rbx
ffffffff8020512d:	48 81 c5 00 10 00 00 	add    $0x1000,%rbp
ffffffff80205134:	48 81 fb 00 00 40 00 	cmp    $0x400000,%rbx
ffffffff8020513b:	75 de                	jne    ffffffff8020511b <vmmgr_init+0x7d>
ffffffff8020513d:	49 8d ad 00 00 20 80 	lea    0xffffffff80200000(%r13),%rbp
ffffffff80205144:	48 89 ee             	mov    %rbp,%rsi
ffffffff80205147:	48 89 df             	mov    %rbx,%rdi
ffffffff8020514a:	e8 a9 fd ff ff       	callq  ffffffff80204ef8 <vmmgr_map_page>
ffffffff8020514f:	48 81 c3 00 10 00 00 	add    $0x1000,%rbx
ffffffff80205156:	48 81 c5 00 10 00 00 	add    $0x1000,%rbp
ffffffff8020515d:	48 81 fb 00 00 c0 02 	cmp    $0x2c00000,%rbx
ffffffff80205164:	75 de                	jne    ffffffff80205144 <vmmgr_init+0xa6>
ffffffff80205166:	48 c7 c6 00 00 10 80 	mov    $0xffffffff80100000,%rsi
ffffffff8020516d:	bf 00 80 0b 00       	mov    $0xb8000,%edi
ffffffff80205172:	e8 81 fd ff ff       	callq  ffffffff80204ef8 <vmmgr_map_page>
ffffffff80205177:	48 be 00 e0 df bf 7f 	mov    $0xffffff7fbfdfe000,%rsi
ffffffff8020517e:	ff ff ff 
ffffffff80205181:	4c 89 e7             	mov    %r12,%rdi
ffffffff80205184:	e8 6f fd ff ff       	callq  ffffffff80204ef8 <vmmgr_map_page>
ffffffff80205189:	48 8b 05 28 40 00 00 	mov    16424(%rip),%rax        # ffffffff802091b8 <__FUNCTION__.1376+0x3b58>
ffffffff80205190:	48 b9 00 e0 df bf 7f 	mov    $0xffffff7fbfdfe000,%rcx
ffffffff80205197:	ff ff ff 
ffffffff8020519a:	48 89 08             	mov    %rcx,(%rax)
ffffffff8020519d:	48 8b 05 2c 40 00 00 	mov    16428(%rip),%rax        # ffffffff802091d0 <__FUNCTION__.1376+0x3b70>
ffffffff802051a4:	4c 89 20             	mov    %r12,(%rax)
ffffffff802051a7:	4c 89 e7             	mov    %r12,%rdi
ffffffff802051aa:	e8 35 00 00 00       	callq  ffffffff802051e4 <vmmgr_load_pml4>
ffffffff802051af:	b8 00 00 00 00       	mov    $0x0,%eax
ffffffff802051b4:	e8 49 ea ff ff       	callq  ffffffff80203c02 <mmgr_syncwith_kernel>
ffffffff802051b9:	b8 00 00 00 00       	mov    $0x0,%eax
ffffffff802051be:	e8 0b f5 ff ff       	callq  ffffffff802046ce <init_bump_addr>
ffffffff802051c3:	48 8b 05 be 40 00 00 	mov    16574(%rip),%rax        # ffffffff80209288 <__FUNCTION__.1376+0x3c28>
ffffffff802051ca:	48 8b 10             	mov    (%rax),%rdx
ffffffff802051cd:	48 8b 05 a4 40 00 00 	mov    16548(%rip),%rax        # ffffffff80209278 <__FUNCTION__.1376+0x3c18>
ffffffff802051d4:	48 89 10             	mov    %rdx,(%rax)
ffffffff802051d7:	48 83 c4 08          	add    $0x8,%rsp
ffffffff802051db:	5b                   	pop    %rbx
ffffffff802051dc:	5d                   	pop    %rbp
ffffffff802051dd:	41 5c                	pop    %r12
ffffffff802051df:	41 5d                	pop    %r13
ffffffff802051e1:	c3                   	retq   
	...

ffffffff802051e4 <vmmgr_load_pml4>:
ffffffff802051e4:	48 89 f8             	mov    %rdi,%rax
ffffffff802051e7:	0f 22 d8             	mov    %rax,%cr3
ffffffff802051ea:	c3                   	retq   
